(lp0
F-0.182996944
aF0.0546715036
aF0.0560904071
aF-0.222221583
aF-0.0150492312
aF-0.17925857
aF0.00156371074
aF0.0806931704
aF-0.182435215
aF-0.243256569
aF-0.118417434
aF0.0263270289
aF-0.040956974
aF-0.138691053
aF0.0382624045
aF0.00195822096
aF-0.0607378818
aF-0.0892447233
aF-0.118998848
aF0.0674000159
aF0.0857453123
aF-0.127528623
aF-0.010737027
aF-0.144446626
aF0.152858838
aF-0.0726807117
aF-0.122127287
aF0.0910062566
aF-0.0346632898
aF0.00868673064
aF-0.064425543
aF-0.0970311016
aF-0.0114601552
aF0.118469626
aF0.0444275141
aF0.0607760921
aF-0.261958301
aF-0.114804819
aF0.047223974
aF0.0292831473
aF-0.152736813
aF0.0525027812
aF0.073489055
aF-0.0293353964
aF-0.102255724
aF-0.158092976
aF-0.0713158548
aF0.163411111
aF-0.0275255237
aF-0.0967561603
aF-0.100456461
aF0.0700776875
aF-0.0241898298
aF-0.204058856
aF-0.0368911736
aF-0.0344459973
aF0.0429518707
aF-0.128689408
aF-0.10502778
aF-0.078962177
aF-0.0648854524
aF0.0529331714
aF-0.0932165757
aF-0.0501211025
aF-0.155642614
aF0.0422796756
aF-0.0943856984
aF-0.0188611001
aF-0.0870549232
aF-0.101482317
aF-0.159690186
aF-0.0271446817
aF-0.0614197478
aF0.130964756
aF0.149477571
aF0.174590573
aF0.0873714536
aF0.00177605811
aF0.175489038
aF0.140251771
aF0.0385064334
aF-0.0938985571
aF-0.0332278088
aF-0.0254962035
aF0.161127567
aF-0.0155955609
aF-0.0511377119
aF0.0693136752
aF-0.0784389898
aF0.0356319062
aF-0.107236125
aF-0.101282477
aF0.0184296183
aF-0.0357203297
aF-0.0220141802
aF-0.120971173
aF0.0321125537
aF0.051091738
aF-0.0417151079
aF-0.0659045875
aF-0.189936966
aF-0.190885782
aF-0.111023016
aF-0.028477164
aF-0.177211955
aF-0.0825617835
aF-0.041372709
aF0.0464570522
aF-0.039244175
aF-0.0959007218
aF-0.143635437
aF0.000840675086
aF-0.214648798
aF-0.226333633
aF-0.0521912389
aF-0.134904251
aF0.046539586
aF-0.219742969
aF-0.0959064513
aF-0.112760022
aF0.0449013039
aF0.0758711845
aF0.0647391751
aF0.176148087
aF-0.0674279779
aF-0.021998927
aF0.10007821
aF-0.0707312971
aF-0.122006059
aF0.0332560129
aF0.03772562
aF-0.101019412
aF-0.0496591032
aF-0.145568147
aF0.0316832513
aF-0.0674416423
aF0.210884377
aF0.0536431521
aF0.0691191256
aF0.136116534
aF-0.0749387741
aF0.150186703
aF-0.0953428522
aF-0.0584521405
aF-0.109734975
aF0.0544142984
aF0.0727314577
aF-0.0649503469
aF-0.0459474437
aF0.0781099424
aF-0.0184144657
aF-0.115368113
aF0.0377926417
aF0.189536124
aF0.116183378
aF0.116358168
aF0.0252128579
aF-0.00568811828
aF-0.00151901972
aF-0.0126489196
aF-0.0370672531
aF0.116534978
aF0.0389151461
aF0.0767219067
aF0.0938559175
aF-0.00931955222
aF0.0390342325
aF-0.0363676734
aF0.0508214496
aF-0.114608765
aF0.00502376538
aF0.0239472333
aF0.126672283
aF0.11263407
aF0.141345516
aF0.0132620623
aF-0.116073512
aF-0.0736991614
aF0.0405773856
aF0.0868218988
aF-0.0804244503
aF0.025873566
aF-0.0512649082
aF0.0447814539
aF-0.0805288628
aF-0.116068929
aF-0.0511083975
aF-0.0839621425
aF0.0930396467
aF-0.25096795
aF-0.0691367611
aF0.210495472
aF0.0292793047
aF0.0248910356
aF0.149423048
aF0.0611529201
aF0.0840986073
aF0.0034829916
aF-0.0112012289
aF-0.0428751484
aF-0.0633397624
aF0.156866625
aF-0.02013354
aF0.030754365
aF0.0039530443
aF-0.00157440803
aF-0.0130463317
aF0.133961439
aF0.0971810147
aF0.0654463544
aF0.12619935
aF-0.00077364227
aF0.0447301641
aF0.0123014562
aF-0.0862215683
aF-0.059415549
aF-0.18568705
aF-0.0692757294
aF0.146869019
aF-5.76563179e-05
aF-0.160672367
aF-0.0816624686
aF0.0742118806
aF0.0273447074
aF-0.00950696506
aF0.143265098
aF-0.0357733481
aF0.0265238751
aF0.0420454554
aF-0.108387098
aF0.0427575633
aF0.240183756
aF0.067959778
aF0.200699538
aF-0.0142168337
aF-0.109466672
aF-0.0865119174
aF-0.0147866067
aF-0.149954394
aF-0.114918053
aF0.0512686782
aF-0.0897215977
aF0.00171569875
aF-0.0279944632
aF0.0337788165
aF0.0564360656
aF0.0892202109
aF0.100060746
aF0.167329058
aF0.298541546
aF0.162814587
aF0.024859665
aF0.0746320114
aF-0.0956448764
aF-0.00382712064
aF0.0640798658
aF-0.249480203
aF-0.14435716
aF0.0670208409
aF-0.0943422765
aF0.148779809
aF0.0615837239
aF-0.174804196
aF0.107951276
aF0.253406197
aF-0.0917078406
aF0.160668314
aF0.216128066
aF-0.102028012
aF-0.000571443525
aF-0.0496012345
aF0.157480702
aF0.0711240992
aF0.0519386381
aF-0.00605223887
aF-0.1343292
aF0.117110744
aF-0.0291400384
aF-0.026897775
aF0.0872103795
aF0.15313229
aF0.0987901166
aF0.0510183387
aF-0.143982276
aF-0.0183655974
aF0.19418633
aF-0.186436892
aF0.077215448
aF0.167003274
aF0.0177573822
aF0.0326661468
aF0.128974751
aF-0.0956134573
aF0.138164833
aF0.118185379
aF-0.0824744254
aF-0.0219855569
aF0.282031417
aF0.00194600271
aF0.176629439
aF-0.0374671184
aF-0.0788949355
aF-0.0377253667
aF-0.0567848682
aF-0.110448562
aF0.0567629784
aF0.0402277634
aF0.0816854835
aF-0.0635814145
aF-0.038214501
aF0.0752345622
aF-0.154057369
aF0.0119659053
aF-0.191804096
aF-0.0306345057
aF0.080022648
aF0.0986429527
aF5.6790097e-05
aF-0.0147741558
aF0.0596460104
aF-0.100736998
aF0.0111023886
aF0.0251106452
aF0.0500936583
aF0.163578108
aF-0.0770660341
aF0.0634407103
aF0.00381347351
aF-0.103500336
aF-0.124192908
aF-0.107118368
aF0.0623421632
aF-0.00914857909
aF0.0914613381
aF0.0724292248
aF-0.069792293
aF-0.0245107487
aF0.0353245884
aF0.0564897545
aF0.0537628494
aF0.0415342785
aF-0.0140183223
aF0.00587699283
aF0.0369509757
aF0.0778121278
aF0.112694874
aF0.0318922736
aF-0.163070962
aF0.0292054135
aF0.0950852409
aF0.0534608662
aF-0.0208384469
aF0.0849863067
aF-0.0461402908
aF-0.0597265474
aF0.0721138045
aF-0.0781095251
aF-0.0863059759
aF-0.00510153035
aF-0.064439714
aF0.0272877868
aF0.00321842823
aF-0.0977215022
aF-0.223780423
aF-0.104660295
aF0.115782134
aF0.0138044329
aF0.0464285351
aF-0.00129467389
aF-0.0633760914
aF0.0313507393
aF0.0284919031
aF-0.0531520061
aF0.0234644543
aF0.026612699
aF-0.0897181779
aF0.0765535235
aF0.0654679984
aF-0.194443271
aF-0.0804949105
aF-0.0903796628
aF-0.240702361
aF0.242573082
aF0.103078537
aF-0.03817489
aF-0.0470800884
aF-0.065484859
aF-0.0770430416
aF-0.221893683
aF-0.0902878866
aF0.0789657459
aF0.260865062
aF0.166396573
aF0.120552279
aF0.110846601
aF0.0750139132
aF0.0700541809
aF0.0546910502
aF-0.053696651
aF-0.0703788027
aF-0.0568286479
aF-0.00232899026
aF-0.00625650259
aF-0.0619520284
aF0.0296638571
aF0.0338115953
aF-0.0542686246
aF0.0373078249
aF0.145113125
aF0.00905705709
aF0.216977447
aF0.140769705
aF-0.0172939468
aF0.0309542771
aF0.188676164
aF-0.0908208787
aF-0.0396252126
aF0.023935087
aF-0.145783976
aF-0.0960556641
aF0.0887655243
aF0.00701274583
aF0.0287101828
aF0.0517829694
aF-0.0496538766
aF0.0700490996
aF0.1024817
aF-0.108791724
aF0.144191876
aF-0.0608674511
aF-0.0911046192
aF-0.0305539779
aF-0.0661414564
aF-0.0598106049
aF-0.035565678
aF0.0253699236
aF0.000583613582
aF-0.11310643
aF0.0506666787
aF0.00746567501
aF-0.252835423
aF0.0655308664
aF0.168778524
aF0.04448824
aF-0.0446603224
aF-0.134797186
aF-0.00553312013
aF0.130748421
aF-0.015582053
aF-0.0825372487
aF0.0269896928
aF-0.0182409119
aF0.0525389053
aF0.0663458407
aF-0.0807763934
aF0.0689442754
aF-0.125492528
aF-0.104819357
aF0.0286637135
aF0.0587015003
aF0.00295779831
aF-0.0220143963
aF0.242802486
aF0.0465188734
aF0.0980618075
aF-0.0259768162
aF-0.00487915985
aF0.062159881
aF0.0955808461
aF0.149685189
aF-0.0334411711
aF-0.1761996
aF-0.0631960854
aF-0.0649741516
aF0.184780046
aF-0.0569200255
aF-0.137055933
aF-0.000955104944
aF0.0569119863
aF0.0220087599
aF-0.151380375
aF0.184755221
aF-0.155981183
aF0.00432741502
aF0.0956888124
aF-0.238234147
aF0.101192273
aF-0.00891583692
aF-0.233605683
aF-0.156558469
aF-0.0692688078
aF-0.0569650978
aF0.021392379
aF0.101537399
aF-0.0109809339
aF0.022789441
aF0.167484283
aF-0.0383270793
aF-0.212534636
aF0.0964899063
aF-0.0890091881
aF0.0318076015
aF0.180595353
aF0.0721594691
aF0.079398945
aF-0.00141707447
aF0.0739927441
aF-0.117215581
aF0.0543504804
aF-0.0592091456
aF0.0124434717
aF0.108223006
aF-0.135809034
aF-0.261028558
aF-0.121771917
aF0.0591875389
aF-0.0737249702
aF-0.0967496708
aF-0.0302787013
aF0.117581517
aF0.26017952
aF-0.17889668
aF0.0528277569
aF0.0539024957
aF0.0320980884
aF-0.0238102674
aF-0.095960483
aF-0.15368095
aF-0.126912192
aF-0.114487484
aF0.106506079
aF-0.20297274
aF0.0607279427
aF0.0174467284
aF-0.0966755673
aF0.0582426898
aF-0.00711148279
aF-0.0231277738
aF0.0106976181
aF-0.276005983
aF-0.191686481
aF0.0303406771
aF0.050370615
aF0.035070315
aF0.0669125021
aF-0.085921675
aF-0.0492598973
aF-0.10533835
aF-0.126296476
aF0.0850294083
aF0.0586122982
aF0.0232120566
aF0.0399682783
aF-0.0853113011
aF-0.184613645
aF-0.0350426696
aF0.110783085
aF-0.0736930743
aF-0.257511646
aF0.147941679
aF0.0729980245
aF-0.107003033
aF0.0587576739
aF-0.0486539789
aF0.16272223
aF-0.0745995194
aF-0.142108142
aF0.00329402997
aF-0.000663208135
aF0.0677750334
aF-0.0920636505
aF-0.00166871608
aF-0.254358679
aF0.0379258357
aF0.00993615668
aF0.0195790548
aF0.0374656506
aF0.108307049
aF0.0873775408
aF-0.0532941408
aF-0.0287956297
aF-0.0523257814
aF0.0351495855
aF0.00391638232
aF-0.14850755
aF-0.086275205
aF-0.00422529271
aF-0.0651028752
aF-0.0106348321
aF-0.0419454239
aF-0.0128595978
aF0.133061692
aF-0.0587279759
aF-0.167730436
aF0.0606512651
aF0.0680905581
aF-0.0100362068
aF-0.0892118365
aF-0.0563854948
aF-0.0257081389
aF-0.0253926162
aF0.0751236752
aF-0.0184648205
aF0.030811727
aF0.0397763066
aF0.0331850275
aF-0.0400430299
aF0.00338022877
aF-0.110852361
aF-0.0316296928
aF0.0384155475
aF-0.165301234
aF-0.0138676157
aF-0.0277001653
aF0.154759541
aF0.0550540127
aF-0.00611791667
aF-0.103047155
aF0.159857228
aF0.109443642
aF-0.0227845404
aF0.0838361159
aF-0.125827417
aF-0.0498414338
aF0.0414114669
aF-0.115644149
aF-0.0361903273
aF0.0600017942
aF-0.129502207
aF0.0997668579
aF0.0478405505
aF-0.0299826544
aF-0.0431616008
aF-0.0599997193
aF0.0534386449
aF-0.129682943
aF-0.0239798222
aF0.0600004904
aF0.0105568226
aF-0.0180887897
aF0.116683885
aF0.121071346
aF-0.0249843355
aF0.0201979447
aF0.0995533988
aF-0.0254445001
aF0.0926798508
aF-0.000340198545
aF0.145460173
aF0.106564514
aF0.0237537771
aF0.00898881443
aF-0.0437143296
aF-0.0869606361
aF-0.0542694442
aF-0.133755758
aF0.0361800231
aF0.182252541
aF0.0802218094
aF-0.154046953
aF0.112485908
aF0.0455833115
aF-0.168277323
aF-0.0201061741
aF-0.105656803
aF0.054684218
aF0.0992609859
aF0.0124788433
aF0.00936118886
aF-0.0479795672
aF0.161394507
aF0.0312934928
aF0.00802895147
aF0.019807227
aF-0.0021803237
aF0.0956132933
aF0.00606246525
aF0.105181888
aF0.0707330331
aF-0.0425039791
aF0.0234160386
aF-0.0526663214
aF0.0222576633
aF0.0648782924
aF-0.0465755165
aF-0.174816027
aF-0.0666955188
aF0.0814033523
aF-0.0320756435
aF-0.139821321
aF0.0175518282
aF-0.124889478
aF-0.107852146
aF-0.168215945
aF0.0324408114
aF0.0568267554
aF-0.0783212408
aF-0.0689372793
aF0.0237959102
aF0.161426261
aF0.0768540576
aF0.0121191647
aF-0.0296541639
aF-0.303342134
aF-0.108307488
aF0.142392337
aF-0.0227502994
aF0.0573461019
aF-0.0217146296
aF-0.118732087
aF0.0743825883
aF-0.091149509
aF0.080310531
aF0.0852367803
aF0.116044164
aF0.0155683672
aF0.110804871
aF0.0194139872
aF-0.0866730437
aF-0.0790788904
aF-0.123652108
aF-0.114569575
aF-0.07260295
aF-0.00687364116
aF-0.14101477
aF0.041895546
aF-0.0329594798
aF0.00658129156
aF0.0478762574
aF0.0845321566
aF-0.112404905
aF0.0566169061
aF0.0142968753
aF-0.111237623
aF0.121851154
aF0.0953920037
aF-0.0280955359
aF-0.0131453872
aF-0.159606084
aF-0.147523239
aF0.0582752302
aF0.157344148
aF0.0164234545
aF0.0147597222
aF-0.0749959648
aF-0.187163919
aF0.124627538
aF-0.198933259
aF-0.109356083
aF0.0856636167
aF-0.0357600637
aF-0.132458732
aF0.0708466992
aF-0.0388942361
aF-0.134889364
aF0.00818615966
aF-0.0083255358
aF-0.100931883
aF-0.0952932909
aF-0.214447007
aF-0.0465600602
aF0.0433802009
aF-0.0202622395
aF-0.0949227735
aF-0.144416362
aF-0.0698381662
aF-0.044355575
aF-0.0156089356
aF-0.0112659158
aF0.0509671569
aF0.0571300834
aF0.0116052534
aF-0.0416448377
aF-0.0982315317
aF0.0155367432
aF-0.0313022472
aF0.0268681347
aF-0.164022893
aF9.75877192e-05
aF0.117047094
aF-0.00513727823
aF-0.0893347636
aF0.154313549
aF0.152374387
aF0.0418254435
aF-0.0312410444
aF0.00100002426
aF-0.0989998505
aF-0.0394278206
aF-0.0253790356
aF0.0355981514
aF0.218139812
aF0.0205630511
aF0.138683364
aF0.0668940544
aF0.0346249975
aF-0.0230181161
aF-0.0518745594
aF0.118491054
aF-0.126588434
aF-0.209103793
aF-0.0095734885
aF0.20176883
aF0.0128813414
aF-0.0213164203
aF0.101860665
aF-0.0623036511
aF-0.0226045884
aF-0.109530695
aF-0.0272260699
aF-0.135203034
aF-0.109801538
aF-0.0475533381
aF0.00986167882
aF0.0794106573
aF0.00334346131
aF0.00728200283
aF-0.0298988838
aF0.000252457889
aF-0.282957464
aF0.020610353
aF0.0325845331
aF-0.0745268241
aF0.118212558
aF-0.0858500004
aF-0.108491451
aF0.0611983463
aF-0.190185487
aF0.0228080004
aF-0.0228829272
aF-0.0622119009
aF-0.157505602
aF0.0948629975
aF0.0401915461
aF-0.00733840792
aF-0.045914121
aF-0.0284648631
aF0.0118479421
aF-0.123077445
aF-0.0187737215
aF-0.0398501605
aF0.0143107688
aF0.117092326
aF0.00235038949
aF0.05913385
aF-0.0036731849
aF-0.0471044891
aF0.00465985853
aF-0.169240147
aF-0.187078893
aF0.0516121946
aF-0.090536043
aF-0.146031648
aF0.0254469849
aF0.0316383466
aF-0.00633958494
aF0.0728493109
aF0.0315683372
aF-0.231566533
aF-0.139083445
aF0.0156154353
aF-0.0451559313
aF-0.122493088
aF-0.0249178
aF-0.138149008
aF-0.0513943732
aF0.158300668
aF0.0720981807
aF0.0253108405
aF0.105059452
aF0.0719950423
aF0.0469013974
aF-0.0895847529
aF0.080875583
aF0.103191204
aF0.164690092
aF-0.00463989191
aF-0.0118424548
aF0.0440942235
aF0.0781719014
aF0.128967971
aF0.120569095
aF-0.104662262
aF-0.193051666
aF0.00366628822
aF-0.100399531
aF-0.0351024196
aF0.0758099034
aF-0.117997505
aF-0.127156883
aF0.135047972
aF0.104334831
aF-0.0774532631
aF0.0860473663
aF-0.069971092
aF-0.224195302
aF0.113562956
aF0.0292180292
aF0.0747089982
aF0.197466075
aF0.114524528
aF0.0386357307
aF0.085302569
aF-0.20942685
aF-0.0197806899
aF0.0660393313
aF-0.0820315927
aF0.13297528
aF0.129681632
aF0.19674091
aF-0.0925352573
aF-0.0103814304
aF-0.00592090143
aF0.0576639362
aF0.185602367
aF-0.0263397023
aF0.0641066208
aF-0.0157297086
aF-0.0246167816
aF-0.00985415094
aF0.136329055
aF-0.1847063
aF-0.204961285
aF-0.0243927967
aF0.064693056
aF0.024193557
aF0.254998982
aF-0.175007313
aF-0.0119560799
aF0.0428556874
aF-0.175697401
aF-0.164584339
aF0.0735199898
aF-0.0523128137
aF-0.0889236853
aF-0.0493801348
aF0.241062522
aF-0.0812839642
aF0.0498676375
aF0.0127910143
aF-0.0294524003
aF-0.0551141649
aF0.0269213654
aF0.0552899763
aF-0.012642066
aF0.0800667107
aF-0.00319496146
aF0.0625216812
aF0.0255004652
aF-0.158037975
aF0.0765794143
aF0.0962670445
aF0.0352471285
aF0.0889867395
aF-0.112544104
aF-0.0764893889
aF-0.070270963
aF-0.0765954778
aF-0.013624562
aF-0.0502975956
aF-0.163058221
aF-0.190208346
aF-0.108950652
aF0.035582941
aF0.0605735295
aF0.0366031155
aF-0.0936933905
aF-0.260392994
aF-0.00161693525
aF0.0675098598
aF0.0376206003
aF-0.116693318
aF-0.0769651085
aF-0.190562561
aF-0.106041595
aF-0.0500475839
aF-0.107957952
aF0.14952153
aF0.0449628718
aF0.0179972406
aF-0.0153620075
aF-0.126076549
aF0.00431165472
aF0.0810556114
aF-0.0211309306
aF0.0708785951
aF0.23940815
aF0.043526236
aF0.143411055
aF0.0859652981
aF-0.0652399957
aF-0.124739327
aF-0.0778861642
aF-0.107770741
aF-0.0585336313
aF0.0873199627
aF-0.227425337
aF-0.0477387086
aF-0.0471016727
aF-0.111642711
aF0.117424488
aF-0.0208293814
aF-0.0345291384
aF0.103316315
aF0.143285677
aF-0.104898572
aF-0.0129303923
aF0.109053545
aF-0.0145065179
aF-0.0183407404
aF-0.0393355489
aF0.0155119449
aF-0.000135276932
aF0.17144905
aF0.0322978087
aF0.000306546164
aF-0.0833622441
aF-0.0360261351
aF0.161757126
aF0.0623810925
aF0.00333315437
aF0.0247947946
aF-0.00820407737
aF-0.00655232323
aF-0.0226891413
aF-0.0796700418
aF-0.0187842641
aF0.119716585
aF0.0510736965
aF-0.162933394
aF-0.0490389094
aF-0.0323051102
aF-0.132605821
aF-0.0862746462
aF0.0768209547
aF0.0233984645
aF0.153047159
aF0.0198089238
aF-0.0546904765
aF0.164398298
aF-0.161133617
aF-0.0369836651
aF0.137362555
aF-0.0222229976
aF0.105689436
aF0.0860740095
aF0.0219619311
aF0.126643285
aF-0.106452167
aF0.0756044462
aF0.0897574052
aF-0.086970672
aF0.0171340816
aF-0.0551713742
aF0.128561363
aF0.00143975858
aF0.000312089745
aF0.0332243815
aF0.160799041
aF0.0576432832
aF0.0828258768
aF-0.227036342
aF0.135736495
aF0.0114261927
aF-0.0376966856
aF-0.0283843055
aF-0.0860781446
aF0.0372158512
aF0.0365238972
aF-2.73751975e-05
aF0.0653672144
aF-0.0833942369
aF0.0702880993
aF-0.159291282
aF-0.102020934
aF-0.00429602852
aF0.0873096362
aF0.188165426
aF0.166369721
aF-0.0628385618
aF-0.156331137
aF0.0363432802
aF-0.0987825766
aF-0.364419162
aF-0.0535452254
aF0.0406567156
aF0.0512131974
aF-0.0477109998
aF-0.119086586
aF-0.122949176
aF0.147109792
aF-0.152102441
aF-0.139348865
aF-0.0100990757
aF-0.0918683931
aF-0.0693141147
aF-0.138078317
aF-0.0409440771
aF0.00030235431
aF0.147379905
aF-0.00750187552
aF0.0654693097
aF0.0114277853
aF-0.165302783
aF0.0273366757
aF0.093208909
aF0.029277632
aF-0.0321893021
aF0.164959699
aF-0.099580586
aF-0.0883170292
aF0.00127900706
aF-0.135574818
aF0.100268275
aF0.0294405892
aF0.0645859689
aF-0.0930029377
aF0.052731324
aF-0.0918280035
aF-0.166968659
aF-0.0440378524
aF-0.109802261
aF0.00517069595
aF0.0974919274
aF0.0263983142
aF-0.26034838
aF-0.0956973806
aF-0.0585044697
aF0.027061522
aF0.00320270541
aF-0.0486235656
aF-0.116847433
aF0.0212657303
aF-0.174931303
aF0.0272276718
aF-0.0178755969
aF-0.132334918
aF-0.205291271
aF-0.00396989938
aF-0.126890481
aF0.194422543
aF0.0498289056
aF0.0255720839
aF-0.0954384059
aF-0.0878815055
aF-0.246825084
aF0.0607795902
aF0.171672791
aF0.128694922
aF0.231652573
aF0.151124582
aF-0.0558263101
aF-0.0503762364
aF-0.0793738887
aF-0.00793949049
aF0.0406382754
aF-0.0724181011
aF-0.0759703517
aF0.0178514104
aF0.122214437
aF0.0863818377
aF-0.172331169
aF0.00462261634
aF0.0167888422
aF0.0290287677
aF0.027170321
aF0.150585771
aF0.0211539604
aF0.0808459967
aF0.0156238079
aF-0.0475606993
aF-0.113338441
aF-0.323309779
aF-0.0597330928
aF-0.101303093
aF-0.060602434
aF0.12215808
aF0.0835269615
aF-0.0702159554
aF-0.169660956
aF-0.290984213
aF-0.383105636
aF-0.275489599
aF-0.0694489852
aF-0.0897398666
aF0.0416449308
aF0.0285921227
aF-0.159783334
aF0.0211730897
aF0.209096715
aF-0.00758776302
aF-0.00786594581
aF0.0664113238
aF0.199879274
aF-0.0525770262
aF-0.0112094432
aF0.0203467961
aF0.0679650679
aF0.0617382228
aF-0.151290312
aF-0.0171011165
aF-0.101639755
aF0.184862047
aF-0.146576747
aF-0.0163123216
aF0.0271614362
aF-0.426748574
aF-0.225195423
aF-0.038279362
aF-0.156179056
aF0.078040719
aF0.00141251821
aF-0.157532007
aF-0.220982447
aF-0.343308032
aF-0.118990682
aF-0.0922268033
aF-0.288581073
aF-0.183711544
aF-0.107777961
aF-0.00909628253
aF-0.0740756169
aF-0.117698126
aF0.030796187
aF0.00649500685
aF-0.374261469
aF-0.337941527
aF0.0479869395
aF-0.182447568
aF0.183293313
aF0.00718213106
aF0.161261812
aF0.0414239094
aF-0.11987032
aF-0.136200324
aF0.0411108248
aF0.117546365
aF-0.0216104239
aF0.0210251007
aF0.0368897431
aF0.0258464888
aF0.0191081408
aF0.0391667746
aF-0.55977881
aF-0.575818419
aF-0.0535869077
aF-0.144128233
aF0.070285514
aF0.0429047793
aF0.0468844473
aF0.336916625
aF-0.129250437
aF-0.194575056
aF0.0510048196
aF0.294347703
aF0.0352393016
aF0.00534977112
aF-0.0183260515
aF0.104923747
aF0.131881982
aF-0.0167971011
aF-0.126684636
aF0.140639365
aF0.0382090583
aF-0.00617511803
aF-0.0109567512
aF-0.0573913679
aF-0.248534352
aF0.0201816484
aF-0.224742845
aF-0.298612803
aF0.00655219145
aF0.0757574663
aF0.00977968425
aF0.21098806
aF-0.00141197897
aF-0.17956467
aF-0.0927686021
aF-0.179490015
aF-0.0548397899
aF0.164068893
aF0.156126752
aF0.0475855954
aF0.0160709582
aF-0.0562761016
aF-0.153988704
aF0.015049085
aF-0.181583717
aF-0.0933587328
aF0.136000723
aF0.121129371
aF-0.0794872716
aF0.290640086
aF-0.147599086
aF-0.187401727
aF-0.0855872706
aF-0.128755987
aF-0.153705984
aF0.0518654473
aF0.0320719257
aF-0.081383884
aF0.159218937
aF0.0273085497
aF-0.0652978271
aF-0.0656673834
aF-0.11319007
aF-0.180421755
aF0.0475756936
aF0.14679049
aF-0.164002776
aF-0.0598385334
aF0.00855694059
aF-0.00882790703
aF-0.0672965646
aF-0.182086945
aF-0.167683288
aF0.172481403
aF0.0520611554
aF-0.0914627612
aF0.156071633
aF-0.0876863226
aF0.0241248161
aF-0.0979400054
aF-0.109362379
aF-0.193298385
aF-0.031406574
aF0.153523639
aF-0.0988601521
aF0.12279965
aF0.0903585777
aF0.0560326613
aF-0.248186171
aF-0.122105263
aF-0.216155633
aF-0.0898736864
aF0.269461751
aF0.00279743806
aF0.0168601163
aF-0.0757234693
aF-0.102596126
aF-0.201512545
aF-0.258030891
aF-0.0479502752
aF-0.0810169503
aF-0.0225664414
aF-0.0106723839
aF-0.0423801467
aF-0.0660100058
aF-0.0528275445
aF-0.134188503
aF-0.090920426
aF-0.00430051703
aF-0.0608016886
aF0.279907763
aF-0.0576149411
aF0.0585535318
aF0.00591913937
aF-0.027984567
aF-0.00236866833
aF-0.0798311457
aF0.0556330048
aF0.00944023114
aF0.183954224
aF0.0194904022
aF0.159778804
aF0.0726776719
aF-0.103525169
aF-0.106005669
aF0.05500504
aF-0.045667138
aF-0.149926439
aF-0.0827356577
aF-0.0765067786
aF-0.0606538728
aF-0.167272002
aF-0.0839059278
aF0.0585340038
aF-0.20293963
aF-0.0614232644
aF0.140549943
aF-0.0340192132
aF-0.0915480629
aF-0.128733918
aF-0.206614852
aF-0.0523474552
aF0.0077505908
aF0.0677154809
aF-0.209117785
aF0.136784181
aF0.269572496
aF0.0265840758
aF-0.00300990022
aF-0.13202785
aF-0.106094174
aF-0.100655779
aF-0.260347456
aF-0.124732442
aF0.204396844
aF0.180858061
aF-0.0111653171
aF0.0583387166
aF0.00417053374
aF0.0813265815
aF-0.245129406
aF-0.112163007
aF-0.00236928393
aF0.094560422
aF0.0540852807
aF-0.0706194416
aF0.00058347109
aF-0.0768407658
aF-0.0755950212
aF0.00572170643
aF0.0231541712
aF-0.001000516
aF0.0720407739
aF0.0470000021
aF-0.099411644
aF0.0163353533
aF0.00274605979
aF-0.0259282794
aF0.0473470166
aF-0.112730362
aF-0.158021435
aF0.0864446983
aF0.29483965
aF-0.0056164586
aF0.0520519242
aF0.101232879
aF0.180668265
aF-0.0379979275
aF-0.094624728
aF-0.0833845139
aF0.0509322658
aF0.323012471
aF-0.0158387218
aF0.151606917
aF-0.0362322666
aF-0.117696829
aF-0.090378575
aF-0.0185983032
aF-0.170624033
aF-0.0520209819
aF-0.0371603593
aF-0.120406054
aF0.0517558008
aF0.145420924
aF0.00341048068
aF0.0401012041
aF-0.199581295
aF-0.116692871
aF-0.103874847
aF0.0447088778
aF0.100764893
aF0.0232433956
aF-0.0156951454
aF-0.0619147085
aF0.0767524987
aF-0.106018856
aF0.0732361078
aF-0.0918318927
aF0.0801052153
aF0.00798298977
aF0.0636946261
aF-0.117161676
aF-0.0548433587
aF0.0238597598
aF-0.155119941
aF0.113939054
aF-0.140923947
aF-0.0494395308
aF0.0204167105
aF0.0768348873
aF-0.00226436346
aF-0.0569151714
aF0.0484313443
aF-0.0255830325
aF0.106022283
aF-0.0538098402
aF0.0326521732
aF0.142035186
aF-0.00725747552
aF-0.102108829
aF-0.154823467
aF-0.0635863915
aF0.155256063
aF0.165966168
aF0.00576682482
aF0.0961661711
aF0.0998768061
aF0.0961819366
aF0.0587196313
aF-0.115580909
aF0.121109724
aF-0.183373407
aF-0.0354741327
aF-0.164841324
aF-0.142281309
aF-0.0133355837
aF0.00218482153
aF-0.00292874966
aF-0.302068442
aF-0.0830148906
aF-0.0961905345
aF-0.0444575138
aF0.0547079928
aF0.171078801
aF-0.0890957937
aF-0.0561513975
aF-0.0587167405
aF-0.246008173
aF-0.0318024121
aF0.17201142
aF0.0714331344
aF-0.0422624759
aF-0.0330463275
aF0.0513123907
aF0.0154823149
aF-0.0863744766
aF-0.214195594
aF-0.0412813947
aF0.107607283
aF0.170153558
aF0.155726552
aF0.167339846
aF0.250672549
aF0.0578133501
aF0.106985778
aF-0.0701406598
aF0.0559080914
aF-0.0111542437
aF-0.0510995463
aF-0.00312136626
aF-0.114352889
aF-0.0213401821
aF-0.0622731745
aF-0.0157125518
aF-0.125324756
aF0.0239003897
aF0.00056125113
aF-0.069693543
aF0.14353916
aF0.0120326122
aF0.118811078
aF-0.107802711
aF0.24360688
aF-0.0196804032
aF0.151193723
aF-0.00907538366
aF-0.0640635788
aF-0.0352985747
aF-0.0350851193
aF0.0725291371
aF0.0268557593
aF0.00757816341
aF-0.0524273142
aF0.0362931974
aF-0.0109695671
aF-0.161521107
aF-0.0975585282
aF0.0187871587
aF0.100198545
aF0.0544451289
aF0.0383307599
aF0.137733042
aF0.0571824014
aF-0.00438198913
aF-0.0883594379
aF-0.00731461542
aF-0.194345638
aF-0.0449732356
aF-0.169369161
aF-0.1186435
aF-0.229547918
aF-0.0112954602
aF-0.0536829568
aF-0.108721763
aF-0.0812216401
aF-0.12229827
aF0.0973662958
aF-0.10196349
aF-0.0010463082
aF-0.141338095
aF-0.0657913834
aF-0.00710892258
aF-0.0197622888
aF0.0280222651
aF0.0148513503
aF-0.247751966
aF-0.0103135807
aF-0.14324525
aF-0.0293582603
aF0.0509764254
aF-0.278024405
aF0.119454853
aF-0.0609543994
aF0.0911254138
aF-0.0439254902
aF0.0544955432
aF0.0954144225
aF0.0756007358
aF0.0241322313
aF-0.00895342976
aF-0.11027427
aF0.0877231881
aF-0.19525741
aF0.0245247446
aF-0.0533659644
aF0.0299081337
aF-0.0539297201
aF0.101374201
aF0.0547705628
aF0.320180923
aF0.227706239
aF-0.00181453081
aF0.00678488333
aF-0.0751188397
aF-0.0533443987
aF0.111832067
aF-0.0427666903
aF-0.139521897
aF-0.11492607
aF0.0492870845
aF-0.0659776032
aF-0.0759186
aF-0.0806110054
aF0.0947090834
aF0.067244038
aF-0.0801466554
aF0.00507623609
aF0.121658154
aF0.145525813
aF0.0419629216
aF-0.0613951385
aF-0.0305860527
aF0.0930251628
aF-0.0212967768
aF0.0560270324
aF0.00117910665
aF0.0572773665
aF0.157617792
aF-0.151337057
aF-0.052175574
aF0.0501432791
aF0.103963792
aF0.141702518
aF-0.212027356
aF0.070197776
aF0.123273693
aF-0.0375501886
aF-0.010632487
aF0.100111924
aF-0.0494435057
aF0.110861763
aF0.165274143
aF0.0129552307
aF-0.000878397725
aF0.0835798755
aF-0.0151118292
aF-0.163900107
aF0.0769169256
aF0.118096016
aF0.062336389
aF-0.0447998084
aF0.0507547483
aF-0.041870594
aF-0.108434096
aF-0.0834032074
aF-0.103010371
aF-0.152569577
aF0.0560119078
aF0.225685433
aF0.0229987204
aF-0.0847109556
aF0.0241440907
aF0.0698457882
aF0.147758111
aF-0.0333098061
aF0.164814115
aF-0.169354856
aF-0.134849563
aF0.0660941377
aF0.00566000724
aF-0.0709203407
aF0.122443967
aF0.114629656
aF-0.0448842458
aF-0.142638251
aF-0.128912926
aF0.0324898362
aF-0.0492840149
aF-0.102828197
aF0.181487218
aF0.0210803878
aF-0.0522677861
aF-0.0980879366
aF-0.0207355749
aF-0.0253290646
aF0.136033192
aF0.0383348987
aF-0.0523537956
aF-0.139617547
aF-0.312563151
aF-0.433092207
aF-0.365300983
aF-0.375856429
aF-0.193523377
aF-0.300413579
aF-0.339805394
aF-0.132461175
aF0.0917243958
aF0.204844564
aF0.0254279319
aF0.0965310931
aF-0.0567567684
aF-0.204972193
aF-0.164808333
aF0.236688048
aF0.139420301
aF-0.136210591
aF-0.0464514494
aF-0.279924929
aF-0.17461732
aF-0.360800296
aF-0.322674453
aF-0.514748812
aF-0.393642873
aF-0.317136198
aF-0.210018635
aF-0.239180416
aF-0.136495501
aF-0.0174536258
aF0.151022106
aF0.0345638432
aF-0.0816945136
aF-0.136318848
aF-0.237196043
aF0.120586984
aF-0.0940268189
aF-0.190873817
aF0.0245705321
aF0.116891712
aF-0.0995215327
aF-0.200533763
aF-0.0926476046
aF0.098439537
aF-0.235829964
aF-0.293197691
aF-0.208223119
aF-0.00978661887
aF0.100813799
aF-0.0486497432
aF-0.09829247
aF-0.220949054
aF-0.2937738
aF0.15923883
aF-0.16911009
aF-0.239514321
aF-0.0357839614
aF0.0523155667
aF0.0262037404
aF-0.329389453
aF-0.0126541108
aF0.137162268
aF0.0888205692
aF-0.414456457
aF-0.394341886
aF-0.188238218
aF-0.0291969255
aF-0.117493078
aF-0.342580229
aF-0.182021976
aF0.323466986
aF0.179800197
aF0.0306561738
aF0.0385731049
aF0.2697092
aF0.0437568985
aF0.182870924
aF-0.128027305
aF0.0704504624
aF0.359935045
aF0.236849979
aF0.0686373413
aF-0.267648935
aF-0.174134672
aF-0.101377122
aF-0.168745816
aF-0.513509095
aF-0.364334464
aF-0.000976502488
aF0.258378565
aF0.0877047703
aF-0.0271932557
aF0.0736915618
aF0.0702556297
aF0.178911954
aF-0.0583785512
aF0.0593741201
aF0.0149473101
aF-0.0428315178
aF-0.0828256458
aF0.0831503645
aF0.223039553
aF0.0242272187
aF0.0672691688
aF-0.0217015296
aF-0.0772568062
aF0.11209961
aF-0.0723197609
aF0.0719854385
aF0.0163951311
aF0.105214521
aF-0.0434612706
aF0.245772332
aF0.0549729578
aF0.0682467222
aF0.0710591152
aF-0.130631462
aF-0.217044398
aF-0.160389423
aF0.0536603779
aF0.0125842616
aF0.048340369
aF-0.0826788843
aF-0.0827115998
aF-0.00613591308
aF-0.0211343821
aF-0.00176289864
aF-0.0406012498
aF0.241961941
aF0.00741027808
aF0.121840671
aF0.0268013589
aF0.0393205434
aF0.0758859813
aF0.162015811
aF0.0895290002
aF-0.121398836
aF-0.136336416
aF-0.217827305
aF-0.00604359899
aF-0.161147147
aF-0.0648010373
aF0.118181027
aF0.195277467
aF0.179428011
aF-0.000455565925
aF0.0368915834
aF-0.0927339867
aF-0.142854199
aF0.00949368998
aF0.0958292857
aF0.143295869
aF0.0291224234
aF0.011294811
aF-0.249982283
aF-0.0628629476
aF-0.24584882
aF-0.049541872
aF-0.0685002282
aF0.132219717
aF0.116181135
aF-0.0936945006
aF0.0900187939
aF0.0252650492
aF-0.0671089664
aF-0.182931677
aF-0.177667499
aF-0.0798793882
aF0.0859047771
aF0.105841219
aF0.2975021
aF0.111896701
aF-0.0679098517
aF0.0426907726
aF-0.248612896
aF-0.0151284067
aF0.0515835248
aF-0.0767545253
aF0.184325337
aF0.181815565
aF0.0991582051
aF-0.0591687374
aF0.243681833
aF-0.185409069
aF-0.185485467
aF-0.0117557729
aF-0.070946075
aF0.185543105
aF0.00233541429
aF0.0582458563
aF-0.0950145647
aF-0.00124894897
aF-0.104020454
aF0.0432146825
aF0.0561880134
aF0.0674956068
aF0.129974499
aF0.119979978
aF-0.141286954
aF-0.0163065195
aF-0.0422771722
aF-0.0134064816
aF0.107379042
aF0.045805648
aF0.0906021073
aF0.178449795
aF0.194302782
aF0.0616328306
aF0.00761937583
aF0.419660687
aF0.0164797213
aF-0.020396065
aF-0.0644285679
aF0.0164649095
aF-0.0441459939
aF-0.0793424919
aF-0.0537578277
aF-0.0600618944
aF0.166919842
aF-0.0775554702
aF0.0475761145
aF0.0427716449
aF-0.18375431
aF-0.13161014
aF0.0341683626
aF-0.0811789557
aF-0.0648470595
aF0.0115321744
aF0.0263315979
aF0.178502813
aF-0.0411260501
aF0.262751251
aF0.0815078914
aF-0.0925118327
aF0.0523883067
aF-0.130674407
aF-0.0758419484
aF-0.0186044648
aF0.232199132
aF-0.0645920411
aF-0.0503148288
aF-0.170595214
aF-0.14397116
aF-0.326072454
aF-0.0495790318
aF0.174087778
aF0.00220883777
aF0.0385619104
aF0.0943528116
aF0.0630350336
aF-0.0701071769
aF-0.0884724483
aF-0.267794132
aF0.122370221
aF0.201479629
aF0.0753695667
aF0.150754765
aF0.0298574194
aF0.0737400278
aF-0.0212115142
aF-0.0681819096
aF0.104123496
aF0.00104460237
aF0.039525643
aF-0.00825501047
aF0.228195816
aF-0.00965749379
aF-0.429923356
aF-0.0938906223
aF-0.0388079509
aF0.00435721641
aF-0.020750884
aF0.264176488
aF0.10274794
aF0.265919536
aF0.250266105
aF-0.352600217
aF0.0639247373
aF0.0140925078
aF0.0694863573
aF0.073782973
aF0.15984866
aF0.165755436
aF0.0701585338
aF0.0084436452
aF0.0990351886
aF-0.019044213
aF-0.198710904
aF-0.0238382854
aF-0.0881615505
aF0.0237903129
aF0.117128342
aF0.089907445
aF0.0632203594
aF-0.0246590283
aF-0.201888412
aF0.0324603878
aF0.0657635331
aF0.149820954
aF0.200769544
aF0.134057745
aF0.0827280283
aF0.0584386364
aF-0.140913725
aF0.102834091
aF0.00304245064
aF-0.119525805
aF-0.0457662418
aF0.24467063
aF0.064606443
aF0.0908630714
aF0.0182933845
aF-0.173787162
aF-0.184080601
aF-0.171965227
aF-0.1984694
aF-0.249406621
aF-0.130445749
aF-0.0126267066
aF0.0357608199
aF0.0444504097
aF0.0563385822
aF-0.229314625
aF0.0458840095
aF-0.0408627652
aF0.0602141097
aF0.0880356133
aF-0.19998236
aF-0.0979842544
aF-0.0334690996
aF0.0450251736
aF0.062061619
aF-0.240356594
aF-0.0756502524
aF-0.13533853
aF-0.0234514959
aF0.0579795502
aF0.0399271846
aF-0.033399906
aF-0.0683654249
aF-0.177953869
aF0.0646555647
aF-0.109111644
aF-0.00204136898
aF-0.0150323883
aF-0.272500426
aF-0.0782314986
aF0.0716773421
aF-0.0659455508
aF0.0234135594
aF0.12295083
aF0.00600815099
aF0.00361847109
aF-0.235047549
aF-0.283870071
aF-0.159214169
aF-0.209195361
aF0.0338977613
aF0.0271461699
aF0.222738862
aF0.0609138273
aF0.145418927
aF0.0987862423
aF0.0702818856
aF0.0534743182
aF0.155126572
aF0.134752318
aF0.121427223
aF0.0194791537
aF-0.112488538
aF-0.124826349
aF-0.263167351
aF-0.364478141
aF-0.222167835
aF-0.146683216
aF0.128026009
aF0.0515474193
aF0.258921504
aF0.112490915
aF0.161086559
aF0.105732471
aF0.0505912527
aF0.160329729
aF0.109703995
aF0.149562418
aF0.117013216
aF0.0727662742
aF-0.101458997
aF-0.0631503686
aF-0.115628071
aF0.0565319508
aF-0.100816995
aF-0.0741020814
aF-0.242164448
aF-0.125838697
aF-0.00139174587
aF-0.00318706944
aF-0.0651501343
aF0.0843918324
aF0.116846457
aF-0.128543422
aF-0.0484401025
aF-0.115222961
aF-0.0118842674
aF-0.097024627
aF-0.0607329644
aF0.0503407344
aF-0.0349267647
aF0.105023369
aF0.00179794186
aF0.0204356294
aF-7.57059897e-05
aF-0.0563105382
aF-0.00436652219
aF-0.0299665462
aF-0.0740167275
aF-0.231049731
aF-0.00684741233
aF-0.0701493844
aF-0.175979957
aF0.0665841252
aF-0.049522724
aF0.00155005266
aF-0.0227372386
aF-0.0188438836
aF-0.0800943151
aF-0.109437384
aF-0.161880165
aF-0.0246603638
aF-0.0392098278
aF0.0386927426
aF-0.0965527669
aF0.108042233
aF-0.0197371021
aF5.9768292e-05
aF0.248690709
aF-0.147905082
aF-0.0827463493
aF0.213491216
aF-0.170130372
aF0.0679632202
aF-0.0931352153
aF-0.263709962
aF-0.197608486
aF-0.0989103168
aF-0.169319704
aF-0.0686978474
aF0.111195073
aF0.132826015
aF-0.109869868
aF0.185813919
aF-0.117988929
aF0.171058461
aF0.185170829
aF-0.09148518
aF0.173166245
aF0.276000828
aF-0.0981007963
aF0.150090992
aF0.14423427
aF-0.0709289908
aF-0.0643564314
aF-0.0349442586
aF-0.043569129
aF-0.0608776882
aF0.155572504
aF-0.122644342
aF-0.0124690747
aF0.0774602741
aF-0.170527458
aF-0.132857576
aF-0.0630496964
aF-0.0780241117
aF-0.148067191
aF0.238837093
aF-0.17911981
aF-0.134785175
aF0.0395274647
aF0.0341340676
aF-0.128301233
aF0.0207356606
aF-0.166903794
aF0.0452468731
aF0.0923536122
aF-0.170779124
aF-0.0511386804
aF-0.0388027951
aF-0.151583001
aF-0.112696901
aF-0.135789961
aF-0.180079743
aF-0.150914028
aF0.160450846
aF0.0567590632
aF0.0164765231
aF0.0798712224
aF0.0656284988
aF-0.0197955221
aF0.0892117992
aF-0.0726333261
aF-0.26902917
aF0.124652237
aF0.0012122019
aF-0.100929603
aF0.0035493765
aF0.00673705852
aF-0.0061922078
aF0.191855446
aF-0.0384056047
aF-0.240702286
aF-0.092094034
aF-0.124195375
aF-0.0215888843
aF0.105940469
aF0.0683235377
aF-0.00347457104
aF0.046520222
aF0.0406256653
aF0.0221566614
aF-0.00426877802
aF0.0605238266
aF-0.187639758
aF0.117781818
aF-0.0202710852
aF-0.0630486757
aF-0.00333622401
aF-0.0487556569
aF-0.03727163
aF-0.137568042
aF-0.0953490064
aF0.0512568392
aF0.271874249
aF0.0313286968
aF0.0130106406
aF0.0168220308
aF-0.0359339714
aF-0.136275083
aF0.0405133441
aF-0.121508583
aF-0.0518753566
aF0.138119012
aF-0.133470267
aF0.0978159681
aF-0.148353353
aF-0.284227163
aF-0.198089197
aF-0.17309013
aF-0.322382599
aF-0.00732398173
aF0.294779986
aF0.0395702608
aF-0.0573416986
aF-0.0557824261
aF0.00505930232
aF-0.0134070339
aF-0.0138264317
aF-0.0816852152
aF-0.0956493244
aF0.193462312
aF0.0623455457
aF0.173953429
aF0.0392294526
aF0.0974998623
aF0.101250008
aF0.145401269
aF-0.139331043
aF-0.272659242
aF-0.323304236
aF-0.242041677
aF0.15152134
aF0.00611940818
aF-0.228053764
aF-0.0678443015
aF-0.0629078373
aF-0.167049959
aF0.0744306147
aF-0.11316891
aF-0.144836813
aF0.11981494
aF-0.0854876414
aF-0.0722016841
aF-0.39531368
aF-0.128331065
aF-0.0859717503
aF-0.0180893969
aF-0.033598233
aF-0.021305725
aF0.143763319
aF0.0771078691
aF-0.0968583301
aF0.00589280995
aF0.289461643
aF0.111995436
aF-0.00746095693
aF-0.101819322
aF-0.199242502
aF0.132582545
aF-0.0830882266
aF-0.0656222329
aF-0.174551785
aF0.0625473857
aF0.102645218
aF0.129222348
aF0.041885484
aF-0.0312184338
aF0.0262426678
aF-0.0479878299
aF0.101031788
aF-0.393676251
aF-0.439155042
aF-0.0511793643
aF0.102986895
aF0.103714593
aF0.0977741554
aF0.109523989
aF0.0787985101
aF0.185220897
aF0.0119795026
aF-0.152261809
aF-0.0927058309
aF-0.00847101957
aF0.129334211
aF-0.0532239415
aF0.103890784
aF-0.128917292
aF0.0168435071
aF-0.194608316
aF-0.317147851
aF-0.0839479864
aF-0.014636931
aF0.0239408556
aF0.0423007458
aF-0.0528894551
aF-0.207649261
aF0.100286506
aF-0.054161191
aF-0.114573903
aF-0.204095662
aF-0.0259777475
aF0.0308785159
aF0.0202146266
aF0.100663915
aF0.139903277
aF0.221109062
aF0.1153294
aF0.0646315888
aF-0.179996133
aF-0.183133185
aF0.0612433553
aF0.139832616
aF0.176336408
aF0.0539842881
aF0.247007936
aF0.0340537056
aF-0.0367296934
aF-0.00476572243
aF-0.0823539272
aF-0.101114526
aF-0.0719420761
aF0.039046064
aF-0.125232816
aF0.0965088904
aF0.0618736297
aF0.0281366818
aF-0.138215914
aF-0.0800768435
aF-0.185038164
aF-0.0121924896
aF0.0139939673
aF-0.192409933
aF0.0609859303
aF0.123647913
aF-0.0937992334
aF-0.200096473
aF-0.0741630197
aF0.0737633631
aF0.037115749
aF0.00517427828
aF0.021644691
aF0.143746987
aF0.0528001375
aF-0.166737035
aF-0.0813356414
aF-0.289749384
aF-0.0472745709
aF0.0297665782
aF0.0826123208
aF-0.00160383375
aF0.0618789084
aF-0.126076803
aF-0.150951967
aF-0.00773773249
aF-0.00747222174
aF-0.0563317314
aF0.0736190081
aF0.112625979
aF0.0957090482
aF0.0747455284
aF0.0458394252
aF-0.201534197
aF-0.166880831
aF-0.0692047477
aF0.00259059109
aF-0.0518835448
aF0.154387966
aF-0.0976487771
aF0.103334263
aF-0.138367131
aF-0.127461284
aF-0.0303856116
aF0.0105426824
aF0.00268985145
aF0.0740228742
aF0.00516298413
aF0.0606930815
aF0.119714499
aF-0.175770283
aF0.026112223
aF-0.0202615075
aF-0.118510604
aF-0.0333486497
aF0.183536559
aF0.0639625415
aF0.112753406
aF0.152750641
aF0.120643243
aF0.125944093
aF-0.0218762215
aF-0.0625387579
aF-0.105255447
aF0.0035267598
aF0.0686806366
aF-0.0717122853
aF0.0916846469
aF-0.0271461923
aF-0.128926948
aF-0.068073988
aF-0.150653675
aF0.00354701746
aF-0.00993059482
aF-0.079601422
aF-0.0244709849
aF-0.0140160071
aF0.119604729
aF-0.02529753
aF-0.230216593
aF-0.0484388135
aF-0.0378102139
aF-0.0104741277
aF-0.0425923839
aF0.0744840875
aF0.130272985
aF0.114872776
aF0.00598537968
aF-0.0590650514
aF0.0515591763
aF0.159193993
aF-0.10589619
aF-0.0148938885
aF-0.0546556078
aF0.232776403
aF0.255950868
aF0.0606539026
aF-0.110691637
aF-0.137384832
aF-0.116760679
aF-0.134222865
aF-0.0660562739
aF-0.1042841
aF-0.0161566883
aF0.0272102132
aF0.0579930507
aF-0.0587140545
aF-0.110524118
aF0.00666736811
aF0.0947798565
aF-0.0390084684
aF-0.222840533
aF0.0325377695
aF0.214902014
aF-0.055038657
aF-0.151161432
aF0.0960261226
aF0.188321263
aF0.0797292069
aF-0.0485180579
aF-0.0870416537
aF0.219297677
aF0.173366159
aF-0.141508877
aF-0.0566612259
aF-0.319924653
aF-0.041436594
aF0.0861049667
aF0.154632434
aF-0.0550997965
aF0.225493491
aF0.166079998
aF-0.135252103
aF-0.0406249911
aF-0.0388922058
aF-0.0287345238
aF0.0261454023
aF0.024617495
aF0.00905750785
aF0.063167721
aF0.144719288
aF-0.0419786312
aF-0.0769380406
aF0.00719283195
aF-0.0157782212
aF0.0558392107
aF0.121210434
aF0.0309720878
aF-0.0591397248
aF0.158564582
aF0.0304473322
aF-0.0690257177
aF-0.1347792
aF-0.168519244
aF0.00866076723
aF-0.0355976559
aF-0.0911316499
aF-0.0325261392
aF-0.0435669422
aF-0.0697695315
aF0.067006059
aF-0.132785171
aF-0.20500952
aF0.0308470167
aF0.0199507512
aF0.0133339334
aF-0.0699895173
aF-0.174589023
aF-0.28560859
aF-0.11854329
aF0.0521137826
aF0.00497197313
aF0.120322451
aF0.0191829186
aF-0.0841187239
aF-0.176565543
aF-0.00897310674
aF-0.0346319489
aF0.00223748432
aF0.0613556579
aF-0.0358030982
aF0.102342792
aF-0.0209905598
aF0.0785007551
aF0.0715572536
aF-0.00637558661
aF-0.0894741565
aF-0.114125185
aF-0.179957911
aF-0.211640567
aF0.0137173347
aF0.0344177596
aF-0.0191970281
aF-0.0970212668
aF-0.259401768
aF-0.225362897
aF-0.183762893
aF-0.0919918939
aF-0.125416338
aF-0.200363129
aF0.0143467961
aF-0.0688658133
aF-0.00466030184
aF-0.0174021292
aF-0.0178246815
aF-0.0969108492
aF-0.0503795706
aF-0.118871041
aF-0.00153046381
aF-0.038409058
aF0.136198416
aF0.021259265
aF-0.0676572993
aF0.148491904
aF-0.0743075758
aF0.0612044744
aF0.0935174078
aF0.0587626584
aF0.0677989423
aF0.0711127222
aF-0.0175505914
aF0.0150669431
aF0.106207587
aF-0.00168498862
aF-0.0326366052
aF-0.0163646489
aF-0.0662962049
aF-0.163140222
aF0.0138860866
aF-0.0460594855
aF-0.130058348
aF0.0709388331
aF0.0993688256
aF0.139534399
aF0.0429826118
aF0.0813438669
aF0.000632100855
aF0.161905259
aF0.0937181711
aF0.102957308
aF0.00971318223
aF0.0693224818
aF-0.00212495215
aF-0.0294524021
aF-0.195486292
aF-0.115877405
aF0.0759029239
aF0.00645196903
aF-0.083790198
aF-0.00363216572
aF-0.140869573
aF0.0329163894
aF-0.108226188
aF-0.107805818
aF-0.0304438528
aF0.204086065
aF0.0946742445
aF0.0999945849
aF0.0579885803
aF0.000349502021
aF-0.179424584
aF-0.25860247
aF-0.0783703998
aF-0.158282161
aF0.141871586
aF-0.0906842574
aF-0.015432585
aF-0.0830487534
aF-0.0616966337
aF0.0217819624
aF-0.0447424762
aF-0.125868037
aF-0.193042904
aF0.0423423909
aF0.0350320488
aF-0.306844652
aF-0.187638432
aF-0.032698635
aF-0.0493144393
aF-0.0202779118
aF-0.0961744934
aF0.0459305719
aF0.0162624139
aF-0.165174276
aF-0.0456947386
aF0.0656429157
aF0.0789111406
aF0.0925937891
aF0.326856166
aF0.0112119
aF0.0427821279
aF0.0844525993
aF0.00120304257
aF-0.0644857287
aF0.0341991745
aF0.000337406615
aF0.159145936
aF0.0317008458
aF-0.187882632
aF-0.13251324
aF-0.0975777507
aF-0.11113447
aF-0.129707694
aF-0.250112265
aF-0.0146444682
aF0.0117277857
aF0.305148154
aF0.0545890741
aF-0.0165657587
aF0.0210517384
aF0.040940892
aF0.035609521
aF0.302665442
aF-0.0534311607
aF0.029486062
aF0.0189436767
aF-0.132665053
aF-0.110189192
aF-0.0475916639
aF-0.0555246472
aF-0.0955776498
aF-0.00734686293
aF-0.150142223
aF-0.111278266
aF0.171015397
aF-0.000777007604
aF-0.162947148
aF-0.109647132
aF0.0774307624
aF-0.0496863425
aF0.17198123
aF-0.300531626
aF-0.191843987
aF0.0245886892
aF0.0995163769
aF-0.0832229704
aF0.0193131492
aF0.0405232608
aF-0.0116879735
aF-0.0222332925
aF-0.203660294
aF-0.0914275423
aF0.022770714
aF0.0860578343
aF-0.112093225
aF0.0195981972
aF-0.116332062
aF0.000452109467
aF-0.0055573862
aF0.115287311
aF-0.0936975777
aF0.0280582067
aF-0.0573487245
aF0.0471782945
aF-0.0651584864
aF-0.163987741
aF-0.0145915616
aF-0.0036349271
aF-0.0661385208
aF-0.0676122159
aF-0.0425934494
aF-0.0550512001
aF-0.157449141
aF-0.149187729
aF-0.0947366655
aF0.0416637734
aF-0.0963906199
aF-0.000600398809
aF-0.00694259908
aF0.0984847173
aF0.148676634
aF0.0167908147
aF-0.0420493633
aF-0.0414597169
aF0.123828068
aF-0.00835589599
aF0.0704860911
aF-0.0337972231
aF0.15822503
aF0.0454108417
aF-0.111337505
aF-0.0144235482
aF-0.0714893863
aF0.0340939052
aF-0.0468545593
aF-0.0750186592
aF-0.18012318
aF-0.0440942496
aF0.0534679443
aF-0.0816683471
aF0.0207107235
aF-0.182726666
aF-0.0277880393
aF0.0405256487
aF0.0477481335
aF-0.118820913
aF-0.0648374557
aF0.138580307
aF-0.160798669
aF-0.0516604297
aF-0.014669029
aF0.0799742267
aF0.0737019777
aF-0.146323428
aF0.131631926
aF0.128199652
aF-0.0902642757
aF-0.0717766657
aF-0.016042551
aF0.0245556813
aF-0.15132618
aF-0.0207193606
aF0.000784437521
aF0.0799940377
aF0.10404177
aF-0.0203191116
aF0.0183842946
aF0.00106425583
aF0.102243118
aF-0.0355407149
aF0.0791706964
aF0.0892591923
aF-0.015318729
aF0.0397331417
aF-0.0256201252
aF-0.0914806575
aF0.0210756026
aF0.142695129
aF0.321101695
aF0.0658570677
aF0.00739403022
aF0.0673971847
aF-0.184057549
aF-0.0188695863
aF-0.146058097
aF-0.174635261
aF-0.0116049815
aF-0.0403810069
aF0.0302351639
aF-0.039492704
aF-0.0110210143
aF-0.0520831458
aF0.037053775
aF0.0222947355
aF0.176510394
aF-0.0609687939
aF-0.0940126106
aF0.121308252
aF0.0646328852
aF0.108368434
aF0.0529338606
aF-0.127314731
aF-0.0441751145
aF0.00550307008
aF-0.171838075
aF-0.163647816
aF-0.0069674002
aF0.121358216
aF0.094829604
aF0.122552082
aF0.047333885
aF-0.0416702516
aF-0.051199846
aF-0.0102809072
aF-0.0032003494
aF0.102752902
aF-0.0673286021
aF-0.0173520353
aF0.0224412493
aF0.05546958
aF-0.00712327426
aF0.0962681398
aF-0.00138768961
aF-0.194850296
aF0.16077511
aF0.0276095811
aF0.00638716388
aF-0.155508012
aF-0.0394512713
aF0.164054796
aF0.198829979
aF0.106799811
aF-0.181690633
aF-0.272410154
aF-0.0611654222
aF0.095510982
aF-0.0844649598
aF0.107897311
aF0.0405434594
aF0.201266572
aF0.274746239
aF0.215029046
aF-0.000986779458
aF0.0454384126
aF-0.11757005
aF-0.126351938
aF-0.0358524881
aF-0.054954432
aF0.0439008102
aF0.0349687897
aF-0.111705855
aF-0.0847012922
aF-0.0622074306
aF-0.0496779718
aF0.0419238359
aF0.155911177
aF-0.036228776
aF-0.136338562
aF-0.0455001481
aF0.0567072108
aF-0.102508888
aF-0.0662345886
aF0.044376187
aF-0.186895579
aF-0.0554986149
aF-0.00553194154
aF0.088527225
aF0.0350742787
aF-0.0552374125
aF-0.280056894
aF-0.144125089
aF-0.0346396565
aF0.056752149
aF0.0647368059
aF-0.001560412
aF-0.131933853
aF-0.0860190913
aF0.15558517
aF-0.130483985
aF-0.108833112
aF-0.0524665937
aF-0.0347040929
aF-0.00891930703
aF-0.0246433765
aF-0.101009272
aF-0.0936499536
aF-0.227108002
aF-0.297043979
aF-0.020490732
aF-0.0305618811
aF0.0805346891
aF0.189954773
aF0.101062387
aF-0.149844497
aF-0.00981052034
aF0.11857564
aF-0.00257489597
aF0.00949393678
aF0.0454768725
aF-0.127388984
aF-0.00400185259
aF0.00657359837
aF0.059805233
aF-0.150173798
aF0.0319097452
aF-0.176499993
aF-0.0871546119
aF0.0806816667
aF-0.0741209909
aF0.0187188052
aF-0.0358768702
aF-0.171034455
aF-0.0975654274
aF-0.0892730951
aF-0.0165223796
aF0.174119726
aF-0.12733689
aF-0.0786338896
aF-0.0992378592
aF-0.0785465166
aF0.15191783
aF-0.059126772
aF0.00996515527
aF-0.0443367064
aF0.04605278
aF-0.11960087
aF-0.106724247
aF0.105876878
aF0.0624982044
aF-0.0670271888
aF-0.206247419
aF0.000615259283
aF0.12621893
aF0.0856053382
aF-0.0936476439
aF-0.13817507
aF0.030115284
aF0.0237845164
aF-0.0866544619
aF-0.00296214269
aF-0.0967330858
aF-0.169692039
aF0.0308496207
aF-0.168693483
aF-0.0239062421
aF-0.0567209497
aF-0.092139788
aF0.00682552252
aF-0.126292318
aF0.00741681224
aF-0.195955172
aF-0.0599830039
aF-0.204724401
aF-0.156528473
aF0.0295760464
aF-0.0879419968
aF-0.289428085
aF-0.147595808
aF0.0269308444
aF0.0333232395
aF0.1416464
aF-0.0248405654
aF0.0838150755
aF0.0900839791
aF-0.0782865882
aF-0.0526621528
aF-0.0785257071
aF-0.0102500096
aF-0.0257722251
aF0.0543480851
aF-0.0989190117
aF-0.0611345917
aF-0.142136171
aF-0.00757502811
aF0.000973708869
aF-0.0749642402
aF-0.0413413011
aF-0.0368371345
aF-0.0422121026
aF0.0922058895
aF-0.0554326698
aF0.0776216611
aF0.0949662104
aF-0.0385631807
aF-0.175187021
aF0.0161966123
aF-0.0161449537
aF0.0465538315
aF0.0482565723
aF-0.0661593825
aF0.0238548499
aF0.114081167
aF-0.0235373117
aF-0.147852406
aF-0.115779407
aF-0.123502798
aF0.134058356
aF0.102250919
aF-0.0300868824
aF0.0280605908
aF0.116428547
aF-0.0212743059
aF-0.0247515664
aF0.0389530435
aF-0.0276706759
aF-0.0846323892
aF0.0201007277
aF-0.234016106
aF-0.202165127
aF-0.00309797004
aF0.018120667
aF-0.0912044495
aF0.0250217598
aF-0.0940998793
aF0.125257313
aF0.0778188929
aF-0.0307650659
aF-0.0920739397
aF-0.0301146172
aF-0.0478843115
aF-0.148762167
aF-0.0532613546
aF-0.0726756901
aF0.107568003
aF0.0352465212
aF0.0203580447
aF0.0470843911
aF-0.0118967658
aF0.0545282252
aF0.119593382
aF0.23960273
aF0.0234388877
aF-0.0216572303
aF0.0232685525
aF0.114220001
aF0.0748835579
aF0.00295647816
aF-0.0647196621
aF0.0390786342
aF0.0909998938
aF0.00633527525
aF0.0971138701
aF0.235338822
aF0.139144942
aF0.0502921902
aF0.0539642088
aF0.026804192
aF-0.190662757
aF0.00478192838
aF-0.0825446397
aF0.0372822285
aF0.0846916661
aF-0.0535718724
aF0.0226293057
aF-0.11437875
aF-0.152253345
aF-0.0795985907
aF0.00140321953
aF-0.0268391035
aF-0.0144199254
aF0.154833391
aF0.0418058187
aF-0.0547900833
aF0.18376492
aF0.106898338
aF-0.159312993
aF0.0543410331
aF0.0586900264
aF-0.00774802966
aF0.0490447916
aF0.0481358953
aF0.128492385
aF0.0960664526
aF0.13076742
aF-0.0636821911
aF-0.0597370416
aF-0.0298828259
aF0.052240964
aF0.0418710671
aF-0.0923850313
aF-0.13241373
aF-0.00236001983
aF-0.0581056513
aF-0.113778472
aF-0.0447910875
aF0.0783552825
aF0.0335022584
aF0.0710777566
aF0.0324833058
aF0.0126536945
aF0.188463494
aF-0.00232830015
aF0.0485338606
aF0.0515644439
aF0.0238874312
aF0.107459038
aF0.0266445968
aF0.123794682
aF0.0281833913
aF-0.0367124937
aF-0.0950704738
aF-0.165048257
aF-0.230125502
aF0.0252157152
aF-0.0194019843
aF0.0296006277
aF0.0172468703
aF0.0668034926
aF0.0774472877
aF-0.0792454556
aF0.0226022098
aF0.0851724967
aF0.0707854554
aF-0.0763978511
aF0.0531738847
aF-0.0385891646
aF-0.0890443102
aF-0.0269253142
aF-0.222227991
aF-0.00191083818
aF-0.0152928783
aF-0.0282888077
aF-0.0508063138
aF0.125550568
aF-0.0322399363
aF0.029534772
aF0.0218369421
aF-0.05830843
aF-0.0631395131
aF0.0161290672
aF-0.0590854622
aF-0.0451944768
aF0.0584915057
aF0.0127119236
aF0.0435637236
aF-0.00989986677
aF-0.314681172
aF-0.0277710129
aF-0.0861074105
aF-0.0362500027
aF0.00243348815
aF-0.02119519
aF0.063321799
aF0.0908097327
aF0.085084334
aF0.00242818333
aF-0.0278609898
aF0.0124101127
aF-0.0405384228
aF-0.00125410222
aF0.0461308621
aF-0.0219556671
aF0.0864807814
aF0.0555131137
aF-0.111107588
aF-0.118475594
aF0.0183657445
aF-0.0572062731
aF0.017307654
aF0.0749344379
aF0.150008321
aF0.0447443165
aF0.105658039
aF0.057192225
aF0.071665369
aF0.0551333018
aF0.0840042904
aF-0.0424915403
aF0.0419840813
aF-0.160922423
aF0.048629988
aF0.118446618
aF-0.00653069699
aF-0.0903483406
aF0.0274210777
aF-0.112991914
aF0.0149598476
aF-0.0813872144
aF-0.100193433
aF0.00852410495
aF0.0910273567
aF-0.09664803
aF0.177156568
aF-0.0393258706
aF-0.0487528965
aF-0.0340073816
aF0.142063886
aF0.0445234366
aF0.100730792
aF-0.00312410388
aF-0.0580659024
aF0.0423128046
aF-0.00186800933
aF0.121358722
aF-0.00851487182
aF-0.194613099
aF0.106786378
aF0.0440899469
aF0.0421591103
aF-0.0864512697
aF-0.0683940947
aF-0.0765091479
aF0.0340049565
aF-0.242401481
aF-0.0587675795
aF-0.120525755
aF0.0230614841
aF0.00213313964
aF-0.0792933851
aF0.0550730564
aF-0.0348420031
aF0.0998021662
aF0.0536868796
aF-0.216462284
aF0.0959398523
aF0.177285761
aF0.0248885024
aF0.104870833
aF0.00159993651
aF0.0482729003
aF0.0415149629
aF-0.102164462
aF-0.0902184099
aF-0.00056016969
aF-0.0293148272
aF0.0209966581
aF-0.0493108556
aF-0.109667212
aF0.0377194248
aF0.157012135
aF-0.0337080657
aF-0.139971688
aF-0.0612701215
aF-0.0340465121
aF-0.100950114
aF-0.206351623
aF-0.0243147276
aF0.0984018296
aF0.0616515204
aF-0.0154545158
aF-0.198680684
aF0.0950763971
aF0.119601578
aF-0.183197588
aF-0.118830904
aF-0.12081904
aF-0.0816421509
aF0.0126472227
aF-0.187060654
aF-0.267397493
aF-0.0124746021
aF-0.00272062444
aF-0.0262279771
aF-0.0418183804
aF-0.0765737742
aF-0.0261642281
aF-0.0114060733
aF-0.23593761
aF0.115138419
aF0.0375022739
aF-0.00762277469
aF0.0304692257
aF-0.0311171729
aF-0.0925811827
aF-0.0117371883
aF-0.0765305385
aF0.0173281245
aF0.0323247835
aF-0.0757003725
aF-0.0890778825
aF-0.048981268
aF0.00531378854
aF0.0275875777
aF0.0826362222
aF-0.149557874
aF-0.0819428191
aF-0.0438535735
aF0.0780201405
aF-0.0172884781
aF0.0479574911
aF0.0173480622
aF-0.0205187667
aF0.0366632082
aF0.0738320723
aF-0.117469616
aF-0.00175642606
aF0.25210306
aF-0.0579972677
aF-0.144241214
aF-0.151162758
aF0.115747377
aF0.0764104724
aF0.162102327
aF-0.116049439
aF-0.0725380257
aF-0.0283685848
aF-0.0487987436
aF-0.127624676
aF-0.0887469575
aF-0.0268541165
aF0.137253448
aF-0.168725297
aF-0.158954084
aF0.0510598235
aF-0.238125056
aF-0.0688808784
aF-0.0466658436
aF-0.0697200447
aF-0.0813521072
aF-0.110495634
aF0.0432715602
aF-0.167219892
aF-0.0252425373
aF0.0973849744
aF0.0566910282
aF-0.0240168441
aF-0.0279294625
aF0.22728394
aF-0.0227275603
aF-0.00608628988
aF-0.116014659
aF0.0407673083
aF0.0817009732
aF0.0575677417
aF-0.0252908748
aF0.0905713737
aF0.030378595
aF0.0835856125
aF0.0519590005
aF-0.153966412
aF0.0428380594
aF0.00478546927
aF-0.0134947896
aF0.085093379
aF0.0373230651
aF0.0443530306
aF-0.113927387
aF-0.107640125
aF-0.227878407
aF-0.0504780561
aF0.0362490043
aF0.139973372
aF-0.0952178612
aF0.208173573
aF0.0677391216
aF0.215652674
aF0.0563736446
aF-0.0150000034
aF-0.00202592975
aF-0.0305772237
aF-0.210829914
aF-0.142016679
aF-0.181015372
aF-0.0960834697
aF-0.158834919
aF0.0912106708
aF-0.0887402222
aF-0.00829134416
aF0.078719005
aF0.0240650866
aF-0.0974158421
aF0.163264185
aF-0.13459
aF-0.0964795351
aF-0.110907547
aF-0.18793124
aF-0.000580998894
aF-0.143053025
aF-0.0927343741
aF-0.191214934
aF-0.0383652151
aF0.169628218
aF0.216002658
aF0.19191134
aF0.120108299
aF0.208666071
aF-0.0238868408
aF0.0486481562
aF-0.0241640341
aF-0.139760509
aF0.0470392369
aF0.11468298
aF0.118358843
aF0.125086501
aF0.017883921
aF-0.0608216375
aF-0.122747675
aF0.0813390464
aF-0.0239202846
aF-0.0962810293
aF-0.0380877964
aF0.0385945849
aF-0.145813376
aF0.203488916
aF0.086734131
aF-0.0351069905
aF0.124691457
aF-0.204031095
aF-0.100618616
aF0.100964971
aF0.0524949655
aF0.294526428
aF0.0442953594
aF-0.140739828
aF0.0574093387
aF0.0980693698
aF-0.0423219725
aF0.0612485483
aF-0.0365847573
aF-0.183273107
aF-0.0414057039
aF-0.0185055714
aF-0.17356135
aF0.107424714
aF0.114100002
aF0.0547554046
aF0.187088966
aF0.22476092
aF0.140715107
aF-0.0638244823
aF0.0472543351
aF-0.128046274
aF-0.0349938385
aF-0.186966643
aF-0.255612195
aF-0.0209178459
aF0.190129161
aF-0.0230429377
aF0.0702175424
aF0.120912552
aF-0.0561946705
aF0.0435799621
aF-0.0117873773
aF-0.0738918036
aF0.188005686
aF0.0888728723
aF-0.0952004567
aF-0.0574499629
aF-0.0222654995
aF-0.140748754
aF-0.0984112397
aF-0.0756733268
aF0.140726477
aF0.00655313535
aF0.051178772
aF-0.031694971
aF0.0275790617
aF-0.115944616
aF0.108601086
aF0.153075159
aF0.277157694
aF-0.0737397373
aF-0.0669586584
aF0.00484272279
aF0.032178238
aF-0.0284537654
aF-0.00971828867
aF-0.0327652544
aF0.0376193449
aF-0.133414954
aF-0.111898087
aF-0.0452397764
aF-0.126617566
aF-0.158531547
aF-0.174685463
aF0.0683029816
aF-0.0756722316
aF0.122728013
aF0.0198094491
aF-0.108006604
aF0.110180356
aF0.0999319926
aF0.0738607422
aF0.0990568697
aF-0.172711238
aF-0.215666816
aF0.00130475033
aF0.140285432
aF-0.147148386
aF-0.0668143854
aF0.0182331763
aF0.0353916734
aF-0.122116491
aF-0.0254529491
aF-0.0698720217
aF0.00886171684
aF-0.0761203691
aF-0.0111132171
aF0.100230239
aF0.0728371143
aF0.0874236524
aF0.0618682317
aF0.0908161476
aF-0.261846632
aF0.0595801175
aF0.0484321825
aF-0.100815639
aF-0.106760606
aF-0.035063386
aF-0.00335259968
aF-0.0156523678
aF0.0295743626
aF-0.113845482
aF0.00809975807
aF0.000444621284
aF0.0806631446
aF0.0556360558
aF0.0272230059
aF-0.0917501897
aF0.0367779806
aF0.0460685082
aF-0.0715135485
aF-0.000706127146
aF-0.0952847227
aF-0.0272620525
aF-0.0477623567
aF0.0499565639
aF0.142761886
aF0.0162562802
aF0.118117683
aF0.068293117
aF0.0084221093
aF-0.0154994801
aF-0.0421213694
aF0.0308307689
aF0.159633502
aF0.0904292315
aF0.0554496981
aF-0.0629711077
aF0.00753937708
aF0.0562576801
aF0.0242788289
aF-0.0331016146
aF0.0853618458
aF-0.0333418548
aF-0.0476372279
aF0.0644963309
aF-0.0125724012
aF-0.048200395
aF0.0191236362
aF-0.0229732022
aF-0.0620877072
aF-0.0173123777
aF0.0192206912
aF0.0339576267
aF0.149429634
aF0.094794333
aF-0.0234364495
aF-0.0255789552
aF-0.162628844
aF0.0941095203
aF0.0945582539
aF-0.0221160669
aF0.00814313162
aF-0.00299237762
aF0.0258334856
aF0.0574769899
aF-0.0417050831
aF-0.0552830882
aF0.0258717239
aF0.0877057016
aF0.0487692989
aF0.0786957145
aF0.033686433
aF-0.0942451954
aF-0.0646628514
aF0.0211862102
aF-0.0692883953
aF0.0342641175
aF-0.0113155423
aF-0.265005589
aF0.0676353797
aF0.162003413
aF0.0111877248
aF0.045914799
aF0.179168046
aF0.0745048374
aF-0.00576852821
aF0.154855877
aF-0.0650301501
aF0.225662544
aF0.235816151
aF0.0846980885
aF0.00764753483
aF-0.0128953373
aF0.125161856
aF0.156398758
aF-0.141876236
aF0.0100471685
aF0.00730120344
aF-0.0829869509
aF-0.0138626825
aF0.0913516283
aF0.0657052621
aF0.1391325
aF0.0750918612
aF0.104404576
aF-0.0735497326
aF-0.0521703772
aF-0.084742412
aF0.0807229728
aF-0.0865235552
aF0.117453277
aF0.00307710632
aF-0.0635282472
aF0.000992349815
aF-0.101192772
aF0.0784089118
aF0.0271669049
aF0.178626105
aF-0.0138948588
aF0.0772294477
aF0.149526998
aF0.080915153
aF0.0597268976
aF0.0276867356
aF0.162558496
aF0.0395849273
aF-0.164853692
aF0.0325119868
aF0.0181568917
aF-0.0130336061
aF-0.117286108
aF0.00199516001
aF-0.11823722
aF-0.0373388156
aF0.0497247912
aF-0.0506258681
aF-0.102693416
aF-0.0544387139
aF0.0615786836
aF-0.0402257107
aF0.0930422172
aF-0.0489365794
aF0.0493823662
aF-0.00524624251
aF0.126214206
aF0.0144253522
aF0.0516975001
aF0.229695931
aF0.0149584664
aF-0.018315142
aF0.0354568139
aF0.178540558
aF0.177672908
aF0.240164533
aF0.00476533594
aF-0.0946655869
aF0.139303416
aF-0.107050464
aF0.181872234
aF0.105327308
aF0.0290985405
aF0.146502391
aF0.142005444
aF-0.0318232365
aF0.0952099487
aF0.137172967
aF-0.15189743
aF0.069813706
aF-0.0314628556
aF0.0388813019
aF0.0883445069
aF0.0942461118
aF-0.173132196
aF0.0210355464
aF0.0294283219
aF-0.0268833023
aF0.1255043
aF0.0130340615
aF-0.0309278704
aF0.170701817
aF0.00434576301
aF0.00525099039
aF0.0743770972
aF-0.0501691364
aF-0.0122173913
aF0.118605718
aF0.0141432844
aF-0.00749926222
aF-0.0167137384
aF-0.175035149
aF-0.0939101875
aF0.065358974
aF-0.0523097813
aF-0.0927428678
aF0.058882229
aF0.116096169
aF0.0427616276
aF0.0221477803
aF-0.04030798
aF-0.0198375657
aF0.0268896855
aF0.0795971304
aF0.060064204
aF-0.139938816
aF-0.00669520907
aF-0.00775795616
aF0.0937086567
aF0.0156301055
aF0.103342719
aF0.0928224474
aF0.0885208026
aF-0.0262745954
aF-0.00503119268
aF-0.0943119824
aF-0.00201402511
aF0.0814238563
aF-0.165129259
aF0.108088434
aF0.101120338
aF0.133633733
aF0.129727915
aF-0.23731491
aF0.0756400675
aF0.0483609475
aF0.0977910906
aF-0.110531218
aF0.0141140381
aF0.000670345791
aF0.0882830694
aF0.133746013
aF-0.223363116
aF-0.0262175277
aF-0.0115179382
aF0.0211052392
aF0.0239076186
aF-0.0865743458
aF-0.197009146
aF-0.276178807
aF-0.100955106
aF0.0579878949
aF-0.0582100265
aF0.0109411553
aF0.138915002
aF-0.0378463641
aF0.101386227
aF3.46242668e-05
aF-0.0708624125
aF-0.131419212
aF0.0149350418
aF0.071848467
aF0.0812203959
aF-0.0140193906
aF-0.155966371
aF0.135350376
aF-0.0762418658
aF-0.0478071272
aF0.167582706
aF-0.0985362679
aF-0.0430438817
aF-0.0813717395
aF0.00831023511
aF-0.121589519
aF0.327337146
aF0.158891812
aF-0.0624128319
aF0.16330643
aF-0.0960023105
aF0.193345293
aF-0.00184457097
aF-0.207747489
aF8.068100697682269
a.