(lp0
F-0.0392317772
aF-0.0648617297
aF-0.00853297673
aF-0.00534521043
aF0.13823621
aF0.13823621
aF-3.11001225e-14
aF-3.11001225e-14
aF-3.11001225e-14
aF-0.0909720957
aF0.128855243
aF0.0905867592
aF-0.00849005673
aF0.160518453
aF0.160518453
aF-3.11001225e-14
aF-3.11001225e-14
aF-3.11001225e-14
aF-0.415916264
aF-0.0139508191
aF-0.0519371405
aF-0.0594659075
aF-0.0494591817
aF-0.0494591817
aF-3.11001225e-14
aF-3.11001225e-14
aF-3.11001225e-14
aF-0.180254519
aF-0.109618187
aF0.110092573
aF0.115946963
aF-0.198005617
aF-0.198005617
aF-3.11001225e-14
aF-3.11001225e-14
aF-3.11001225e-14
aF-0.0813661143
aF-0.112779029
aF0.0584741384
aF0.064718321
aF-0.126428112
aF-0.126428112
aF-3.11001225e-14
aF-3.11001225e-14
aF-3.11001225e-14
aF-0.122643247
aF-0.0960142761
aF0.0491797104
aF0.169723794
aF0.0400912166
aF0.0400912166
aF-3.11001225e-14
aF-3.11001225e-14
aF-3.11001225e-14
aF0.0814460516
aF0.18103759
aF0.141207829
aF0.0828191862
aF0.0352321491
aF0.0352321491
aF-3.11001225e-14
aF-3.11001225e-14
aF-3.11001225e-14
aF0.0172333997
aF0.209076226
aF-0.0348830298
aF0.0737615675
aF-0.0542252399
aF-0.0542252399
aF-3.11001225e-14
aF-3.11001225e-14
aF-3.11001225e-14
aF0.24542737
aF0.102001145
aF0.00855020061
aF0.087182492
aF-0.08287967
aF-0.08287967
aF-3.11001225e-14
aF-3.11001225e-14
aF-3.11001225e-14
aF0.0391873531
aF0.0899372697
aF-0.112370685
aF-0.0974714607
aF0.0586347729
aF0.0586347729
aF-3.11001225e-14
aF-3.11001225e-14
aF-3.11001225e-14
aF-0.11131762
aF-0.0149793709
aF-0.0431710519
aF-0.0465900153
aF-0.0198716559
aF-0.0198716559
aF-3.11001225e-14
aF-3.11001225e-14
aF-3.11001225e-14
aF-0.181063488
aF0.0289020222
aF0.0556283407
aF0.0984009728
aF0.0363501944
aF0.0363501944
aF-3.11001225e-14
aF-3.11001225e-14
aF-3.11001225e-14
aF-0.0480187871
aF-0.019962294
aF-0.0516878143
aF-0.041435618
aF0.0267002899
aF0.0267002899
aF-3.11001225e-14
aF-3.11001225e-14
aF-3.11001225e-14
aF-0.0851699039
aF0.0111720199
aF-0.0282811876
aF-0.0972307324
aF-0.028661726
aF-0.028661726
aF-3.11001225e-14
aF-3.11001225e-14
aF-3.11001225e-14
aF0.0810822174
aF-0.0838056803
aF0.0946685672
aF0.0929182768
aF-0.19143033
aF-0.19143033
aF-3.11001225e-14
aF-3.11001225e-14
aF-3.11001225e-14
aF-0.0476023555
aF0.318607539
aF-0.131384343
aF-0.070936799
aF0.0936829373
aF0.0936829373
aF-3.11001225e-14
aF-3.11001225e-14
aF-3.11001225e-14
aF0.0567263626
aF0.0329663754
aF0.0295936689
aF0.00843421463
aF-0.0572033823
aF-0.0572033823
aF-3.11001225e-14
aF-3.11001225e-14
aF-3.11001225e-14
aF-0.126630604
aF-0.0313312039
aF-0.0831799805
aF-0.110315368
aF0.0538451262
aF0.0538451262
aF-3.11001225e-14
aF-3.11001225e-14
aF-3.11001225e-14
aF0.0338026956
aF-0.116955072
aF-0.0422147401
aF-0.0297645442
aF0.0272598546
aF0.0272598546
aF-3.11001225e-14
aF-3.11001225e-14
aF-3.11001225e-14
aF0.045538988
aF0.0773424804
aF-0.0525998138
aF-0.016755227
aF-0.0144641818
aF-0.0144641818
aF-3.11001225e-14
aF-3.11001225e-14
aF-3.11001225e-14
aF-0.112862408
aF0.0971754938
aF-0.0719256476
aF-0.0922360644
aF0.0779667422
aF0.0779667422
aF-3.11001225e-14
aF-3.11001225e-14
aF-3.11001225e-14
aF-0.0240056887
aF0.257886112
aF-0.0986763239
aF-0.0986761451
aF-0.0206682868
aF-0.0206682868
aF-3.11001225e-14
aF-3.11001225e-14
aF-3.11001225e-14
aF0.149867028
aF0.0823388323
aF-0.0167515427
aF-0.0538125448
aF0.0334043503
aF0.0334043503
aF-3.11001225e-14
aF-3.11001225e-14
aF-3.11001225e-14
aF-0.0571580864
aF0.0516344011
aF0.11356011
aF0.170931458
aF0.133309275
aF0.133309275
aF-3.11001225e-14
aF-3.11001225e-14
aF-3.11001225e-14
aF0.100397304
aF0.0221618842
aF-0.0327007957
aF-0.0177015178
aF0.0137592964
aF0.0137592964
aF-3.11001225e-14
aF-3.11001225e-14
aF-3.11001225e-14
aF-0.0773279816
aF-0.120644838
aF-0.0907818004
aF-0.0880306661
aF0.0319509543
aF0.0319509543
aF-3.11001225e-14
aF-3.11001225e-14
aF-3.11001225e-14
aF-0.0696083754
aF0.30109641
aF0.107023597
aF0.0553756766
aF0.0198370386
aF0.0198370386
aF-3.11001225e-14
aF-3.11001225e-14
aF-3.11001225e-14
aF0.0465390906
aF0.0210920796
aF-0.0748203918
aF-0.1513464
aF-0.0655472577
aF-0.0655472577
aF-3.11001225e-14
aF-3.11001225e-14
aF-3.11001225e-14
aF0.0656439364
aF-0.0658018813
aF-0.0444679037
aF-0.0241954904
aF-0.00461197691
aF-0.00461197691
aF-3.11001225e-14
aF-3.11001225e-14
aF-3.11001225e-14
aF0.134141177
aF0.0772805363
aF-0.0538263172
aF-0.142812565
aF0.0243478399
aF0.0243478399
aF-3.11001225e-14
aF-3.11001225e-14
aF-3.11001225e-14
aF0.144769907
aF0.237914085
aF0.048972249
aF0.0142527241
aF0.106984146
aF0.106984146
aF-3.11001225e-14
aF-3.11001225e-14
aF-3.11001225e-14
aF-0.215366349
aF0.0805636644
aF0.0363072529
aF0.0421770066
aF-0.134486452
aF-0.134486452
aF-3.11001225e-14
aF-3.11001225e-14
aF-3.11001225e-14
aF-0.0300469659
aF0.0382533148
aF0.0173896253
aF-0.0316468142
aF-0.0316142738
aF-0.0316142738
aF-3.11001225e-14
aF-3.11001225e-14
aF-3.11001225e-14
aF0.035978321
aF-0.256948382
aF-0.0363201797
aF-0.0232702177
aF0.116091527
aF0.116091527
aF-3.11001225e-14
aF-3.11001225e-14
aF-3.11001225e-14
aF0.0382894166
aF0.0288328566
aF0.137831032
aF0.0875497907
aF-0.0483339764
aF-0.0483339764
aF-3.11001225e-14
aF-3.11001225e-14
aF-3.11001225e-14
aF-0.0519870482
aF0.0845323801
aF-0.0214917455
aF-0.0467204489
aF-0.0439097285
aF-0.0439097285
aF-3.11001225e-14
aF-3.11001225e-14
aF-3.11001225e-14
aF-0.0237626266
aF-0.163503319
aF-0.00405372027
aF-0.0371737629
aF0.00768284826
aF0.00768284826
aF-3.11001225e-14
aF-3.11001225e-14
aF-3.11001225e-14
aF-0.0798342749
aF0.0509198867
aF0.0922022983
aF0.0879403427
aF0.0263880994
aF0.0263880994
aF-3.11001225e-14
aF-3.11001225e-14
aF-3.11001225e-14
aF0.106634825
aF0.0509142838
aF0.0505804047
aF0.030015666
aF-0.0101793837
aF-0.0101793837
aF-3.11001225e-14
aF-3.11001225e-14
aF-3.11001225e-14
aF0.0447451472
aF0.109452367
aF-0.090945743
aF-0.0329991877
aF0.0238915402
aF0.0238915402
aF-3.11001225e-14
aF-3.11001225e-14
aF-3.11001225e-14
aF-0.0230604112
aF-0.0430368073
aF-0.144210711
aF-0.130057946
aF-0.0864144415
aF-0.0864144415
aF-3.11001225e-14
aF-3.11001225e-14
aF-3.11001225e-14
aF-0.138157159
aF0.220129818
aF0.0534619614
aF0.152460828
aF0.0838132426
aF0.0838132426
aF-3.11001225e-14
aF-3.11001225e-14
aF-3.11001225e-14
aF0.0854387432
aF0.0650996268
aF-0.0470183045
aF-0.0241865348
aF-0.0057624788
aF-0.0057624788
aF-3.11001225e-14
aF-3.11001225e-14
aF-3.11001225e-14
aF0.0316196419
aF-0.191748545
aF0.0395350493
aF0.0927985534
aF-0.0357954018
aF-0.0357954018
aF-3.11001225e-14
aF-3.11001225e-14
aF-3.11001225e-14
aF-0.19424139
aF0.0575981475
aF0.0550593138
aF0.0690537095
aF-0.0458078049
aF-0.0458078049
aF-3.11001225e-14
aF-3.11001225e-14
aF-3.11001225e-14
aF-0.00026388542
aF-0.0748400912
aF0.0637937486
aF0.0447422415
aF0.057318341
aF0.057318341
aF-3.11001225e-14
aF-3.11001225e-14
aF-3.11001225e-14
aF0.197204843
aF-0.0267503355
aF-0.135452256
aF-0.159167632
aF-0.0959506705
aF-0.0959506705
aF-3.11001225e-14
aF-3.11001225e-14
aF-3.11001225e-14
aF-0.130455568
aF0.105007105
aF0.107614197
aF0.0668597743
aF-0.0701425672
aF-0.0701425672
aF-3.11001225e-14
aF-3.11001225e-14
aF-3.11001225e-14
aF0.0881401226
aF-0.0722980276
aF0.0631473362
aF0.078921549
aF0.056068927
aF0.056068927
aF-3.11001225e-14
aF-3.11001225e-14
aF-3.11001225e-14
aF-0.13643375
aF0.101947218
aF-0.128166184
aF-0.122836351
aF0.0233735386
aF0.0233735386
aF-3.11001225e-14
aF-3.11001225e-14
aF-3.11001225e-14
aF0.0669410378
aF-0.027326759
aF-0.094409138
aF-0.11723917
aF-0.0583278239
aF-0.0583278239
aF-3.11001225e-14
aF-3.11001225e-14
aF-3.11001225e-14
aF0.0471405648
aF-0.199534222
aF-0.0377838947
aF-0.0360578708
aF-0.0657500848
aF-0.0657500848
aF-3.11001225e-14
aF-3.11001225e-14
aF-3.11001225e-14
aF-0.0510913506
aF-0.0420304015
aF-0.07016325
aF-0.0369516499
aF0.126145437
aF0.126145437
aF-3.11001225e-14
aF-3.11001225e-14
aF-3.11001225e-14
aF-0.187262878
aF0.0349080302
aF0.110443376
aF0.0685556531
aF-0.0701095015
aF-0.0701095015
aF-3.11001225e-14
aF-3.11001225e-14
aF-3.11001225e-14
aF0.141340271
aF0.239471465
aF0.0487843826
aF0.0384817012
aF-0.0487698428
aF-0.0487698428
aF-3.11001225e-14
aF-3.11001225e-14
aF-3.11001225e-14
aF0.0838377848
aF-0.0334991701
aF0.0412642062
aF-0.0512536243
aF-0.0204422399
aF-0.0204422399
aF-3.11001225e-14
aF-3.11001225e-14
aF-3.11001225e-14
aF0.0722095072
aF-0.0165166184
aF0.00555564323
aF-0.042006284
aF-0.0190336555
aF-0.0190336555
aF-3.11001225e-14
aF-3.11001225e-14
aF-3.11001225e-14
aF0.0919898003
aF0.144294977
aF0.0129293939
aF0.00793539267
aF-0.0649922043
aF-0.0649922043
aF-3.11001225e-14
aF-3.11001225e-14
aF-3.11001225e-14
aF-0.0935603902
aF0.126835525
aF0.0799657777
aF0.121478364
aF-0.0272522904
aF-0.0272522904
aF-3.11001225e-14
aF-3.11001225e-14
aF-3.11001225e-14
aF-0.0706388876
aF0.150801182
aF0.05730322
aF0.0683466718
aF0.111278161
aF0.111278161
aF-3.11001225e-14
aF-3.11001225e-14
aF-3.11001225e-14
aF0.0570421331
aF-0.0656432807
aF-0.0811589435
aF-0.0671763644
aF-0.136713371
aF-0.136713371
aF-3.11001225e-14
aF-3.11001225e-14
aF-3.11001225e-14
aF-0.0620676875
aF0.113919161
aF0.0554007478
aF0.101838261
aF0.0272167046
aF0.0272167046
aF-3.11001225e-14
aF-3.11001225e-14
aF-3.11001225e-14
aF0.0209380556
aF-0.194212839
aF-0.0658790767
aF-0.0640129596
aF0.0221820939
aF0.0221820939
aF-3.11001225e-14
aF-3.11001225e-14
aF-3.11001225e-14
aF-0.0714621246
aF0.0903873369
aF0.0360877626
aF-0.0261984002
aF0.0317650102
aF0.0317650102
aF-3.11001225e-14
aF-3.11001225e-14
aF-3.11001225e-14
aF-0.0320909023
aF-0.0529313907
aF-0.126332119
aF-0.144258991
aF0.00891069882
aF0.00891069882
aF-3.11001225e-14
aF-3.11001225e-14
aF-3.11001225e-14
aF0.0291361324
aF-0.104800969
aF0.0190313887
aF0.0504011065
aF0.0934908763
aF0.0934908763
aF-3.11001225e-14
aF-3.11001225e-14
aF-3.11001225e-14
aF0.0639630631
aF0.226317942
aF0.0719247311
aF-0.0507203154
aF-0.012983053
aF-0.012983053
aF-3.11001225e-14
aF-3.11001225e-14
aF-3.11001225e-14
aF-0.0132251522
aF-0.0208024252
aF0.0831592157
aF0.0819377825
aF-0.0416354127
aF-0.0416354127
aF-3.11001225e-14
aF-3.11001225e-14
aF-3.11001225e-14
aF0.100794151
aF-0.0396578498
aF-0.0247219056
aF-0.0629845858
aF-0.0440682769
aF-0.0440682769
aF-3.11001225e-14
aF-3.11001225e-14
aF-3.11001225e-14
aF0.0025379986
aF-0.0559030734
aF0.0390227176
aF-0.0172986835
aF0.0588424765
aF0.0588424765
aF-3.11001225e-14
aF-3.11001225e-14
aF-3.11001225e-14
aF-0.0769494548
aF0.239695773
aF0.0142908068
aF0.00210868358
aF-0.0681911558
aF-0.0681911558
aF-3.11001225e-14
aF-3.11001225e-14
aF-3.11001225e-14
aF-0.0263827648
aF0.00454134215
aF-0.0727507547
aF0.0340154096
aF0.00925759599
aF0.00925759599
aF-3.11001225e-14
aF-3.11001225e-14
aF-3.11001225e-14
aF0.149460167
aF0.139601663
aF0.151955351
aF0.164627552
aF-0.0255395416
aF-0.0255395416
aF-3.11001225e-14
aF-3.11001225e-14
aF-3.11001225e-14
aF0.0398740731
aF0.0501755401
aF0.0408194512
aF0.0226982795
aF0.0317787193
aF0.0317787193
aF-3.11001225e-14
aF-3.11001225e-14
aF-3.11001225e-14
aF-0.0417988561
aF-0.103888094
aF-0.0508958139
aF0.00796322618
aF-0.056504678
aF-0.056504678
aF-3.11001225e-14
aF-3.11001225e-14
aF-3.11001225e-14
aF-0.191694662
aF0.112795331
aF0.00320876203
aF-0.0502013676
aF0.00610628584
aF0.00610628584
aF-3.11001225e-14
aF-3.11001225e-14
aF-3.11001225e-14
aF-0.120169766
aF-0.215230182
aF-0.0896019489
aF-0.074449487
aF-0.0688329861
aF-0.0688329861
aF-3.11001225e-14
aF-3.11001225e-14
aF-3.11001225e-14
aF-0.113438569
aF-0.0401464924
aF-0.125737906
aF-0.104193255
aF-0.00748250447
aF-0.00748250447
aF-3.11001225e-14
aF-3.11001225e-14
aF-3.11001225e-14
aF0.0878996029
aF0.118686318
aF0.0895728394
aF0.0842823982
aF0.0844598189
aF0.0844598189
aF-3.11001225e-14
aF-3.11001225e-14
aF-3.11001225e-14
aF0.101549394
aF0.146127939
aF0.0247810166
aF-0.00662575616
aF0.00129306468
aF0.00129306468
aF-3.11001225e-14
aF-3.11001225e-14
aF-3.11001225e-14
aF-0.0843183026
aF0.0421200395
aF0.03943526
aF0.105946623
aF0.0273703467
aF0.0273703467
aF-3.11001225e-14
aF-3.11001225e-14
aF-3.11001225e-14
aF-0.00675842818
aF-0.0281575676
aF0.0635126159
aF0.019353183
aF-0.0740630552
aF-0.0740630552
aF-3.11001225e-14
aF-3.11001225e-14
aF-3.11001225e-14
aF0.208679989
aF0.100815125
aF0.0224866662
aF0.0716695115
aF-0.00649874425
aF-0.00649874425
aF-3.11001225e-14
aF-3.11001225e-14
aF-3.11001225e-14
aF-0.117603257
aF-0.0012163372
aF0.187435329
aF0.11590033
aF0.0531914271
aF0.0531914271
aF-3.11001225e-14
aF-3.11001225e-14
aF-3.11001225e-14
aF-0.128161654
aF-0.190509737
aF-0.037806455
aF-0.0327403545
aF0.0741660446
aF0.0741660446
aF-3.11001225e-14
aF-3.11001225e-14
aF-3.11001225e-14
aF0.123521
aF0.0943933055
aF-0.266506135
aF-0.356133997
aF0.0643161982
aF0.0643161982
aF-3.11001225e-14
aF-3.11001225e-14
aF-3.11001225e-14
aF-0.0326293372
aF0.0808694884
aF-0.146262184
aF-0.19919008
aF-0.0781473815
aF-0.0781473815
aF-3.11001225e-14
aF-3.11001225e-14
aF-3.11001225e-14
aF0.143398359
aF0.0658258349
aF0.26381138
aF0.293940663
aF0.0457936041
aF0.0457936041
aF-3.11001225e-14
aF-3.11001225e-14
aF-3.11001225e-14
aF0.0091746496
aF0.108646877
aF0.133423284
aF0.169060513
aF0.00448952522
aF0.00448952522
aF-3.11001225e-14
aF-3.11001225e-14
aF-3.11001225e-14
aF0.0260024872
aF-0.090942502
aF0.0860837549
aF-0.0237779841
aF0.0391898751
aF0.0391898751
aF-3.11001225e-14
aF-3.11001225e-14
aF-3.11001225e-14
aF0.0827661753
aF-0.18970491
aF-0.141789049
aF-0.155473053
aF-0.0276141409
aF-0.0276141409
aF-3.11001225e-14
aF-3.11001225e-14
aF-3.11001225e-14
aF-0.117943324
aF0.172000468
aF-0.0777180046
aF0.0101905782
aF-0.0160651579
aF-0.0160651579
aF-3.11001225e-14
aF-3.11001225e-14
aF-3.11001225e-14
aF-0.117958911
aF-0.339719832
aF-0.103360847
aF-0.214270845
aF0.0747321919
aF0.0747321919
aF-3.11001225e-14
aF-3.11001225e-14
aF-3.11001225e-14
aF0.0372174978
aF0.298552334
aF0.0789183825
aF0.118589692
aF-0.0438168384
aF-0.0438168384
aF-3.11001225e-14
aF-3.11001225e-14
aF-3.11001225e-14
aF-0.0137774199
aF0.016284056
aF0.0329201221
aF0.0754718855
aF-0.0279654115
aF-0.0279654115
aF-3.11001225e-14
aF-3.11001225e-14
aF-3.11001225e-14
aF0.094518885
aF0.0248833392
aF-0.00847769901
aF0.020209277
aF-0.00294987089
aF-0.00294987089
aF-3.11001225e-14
aF-3.11001225e-14
aF-3.11001225e-14
aF-0.0357208438
aF-0.0996145979
aF-0.049413465
aF-0.107905112
aF-0.149678603
aF-0.149678603
aF-3.11001225e-14
aF-3.11001225e-14
aF-3.11001225e-14
aF-0.124996684
aF-0.0990677401
aF-0.107943527
aF0.0350883827
aF0.0843023211
aF0.0843023211
aF-3.11001225e-14
aF-3.11001225e-14
aF-3.11001225e-14
aF0.0545044951
aF0.132644266
aF0.108143449
aF0.052688092
aF0.0273617879
aF0.0273617879
aF-3.11001225e-14
aF-3.11001225e-14
aF-3.11001225e-14
aF0.106212996
aF0.0660380423
aF0.0492135063
aF0.0201284774
aF0.0380144715
aF0.0380144715
aF-3.11001225e-14
aF-3.11001225e-14
aF-3.11001225e-14
aF-0.182960957
aF0.120453075
aF-0.14173986
aF-0.0699383616
aF-0.0464303643
aF-0.0464303643
aF-3.11001225e-14
aF-3.11001225e-14
aF-3.11001225e-14
aF0.0122528411
aF-0.0414818451
aF0.0160441007
aF-0.0474209003
aF0.0805925503
aF0.0805925503
aF-3.11001225e-14
aF-3.11001225e-14
aF-3.11001225e-14
aF0.0860071629
aF-0.0962963402
aF0.157236204
aF0.132893071
aF-0.0115144541
aF-0.0115144541
aF-3.11001225e-14
aF-3.11001225e-14
aF-3.11001225e-14
aF0.0847009942
aF0.0173253026
aF-0.0221030451
aF-0.00609637238
aF-0.0226477049
aF-0.0226477049
aF-3.11001225e-14
aF-3.11001225e-14
aF-3.11001225e-14
aF-0.0595199987
aF-0.0553825982
aF-0.146923795
aF-0.187640727
aF0.0348714143
aF0.0348714143
aF-3.11001225e-14
aF-3.11001225e-14
aF-3.11001225e-14
aF-0.0712135732
aF-0.201726034
aF0.102251902
aF0.094758451
aF0.0139953271
aF0.0139953271
aF-3.11001225e-14
aF-3.11001225e-14
aF-3.11001225e-14
aF0.00798155367
aF0.0837085471
aF-0.0890441015
aF0.00157619524
aF-0.042036958
aF-0.042036958
aF-3.11001225e-14
aF-3.11001225e-14
aF-3.11001225e-14
aF0.122751892
aF0.173400134
aF0.133716002
aF0.0913061053
aF-0.00682969904
aF-0.00682969904
aF-3.11001225e-14
aF-3.11001225e-14
aF-3.11001225e-14
aF-0.113513879
aF0.203448385
aF-0.0403768569
aF0.00660443446
aF0.0946115181
aF0.0946115181
aF-3.11001225e-14
aF-3.11001225e-14
aF-3.11001225e-14
aF-0.00991013646
aF-0.133145079
aF-0.0928655639
aF-0.145820633
aF0.00368508464
aF0.00368508464
aF-3.11001225e-14
aF-3.11001225e-14
aF-3.11001225e-14
aF0.239384234
aF-0.0808911398
aF0.0714075416
aF0.0962513834
aF-0.082854718
aF-0.082854718
aF-3.11001225e-14
aF-3.11001225e-14
aF-3.11001225e-14
aF-0.1159603
aF0.0105877537
aF0.0618348643
aF0.0429647863
aF-0.0154418172
aF-0.0154418172
aF-3.11001225e-14
aF-3.11001225e-14
aF-3.11001225e-14
aF-0.0713578835
aF-0.0165695529
aF0.00385259325
aF-0.0139748696
aF-0.0017511691
aF-0.0017511691
aF-3.11001225e-14
aF-3.11001225e-14
aF-3.11001225e-14
aF-0.0555832498
aF0.119014919
aF-0.124454454
aF0.0110132145
aF0.0982839018
aF0.0982839018
aF-3.11001225e-14
aF-3.11001225e-14
aF-3.11001225e-14
aF0.0489388183
aF-0.0184240323
aF0.0131432442
aF0.0204479881
aF0.0487363786
aF0.0487363786
aF-3.11001225e-14
aF-3.11001225e-14
aF-3.11001225e-14
aF0.0780024678
aF0.0658282489
aF-0.136257544
aF-0.0967160314
aF-0.0391407236
aF-0.0391407236
aF-3.11001225e-14
aF-3.11001225e-14
aF-3.11001225e-14
aF-0.0802662894
aF0.100963116
aF-0.114299215
aF-0.13914305
aF0.0260116458
aF0.0260116458
aF-3.11001225e-14
aF-3.11001225e-14
aF-3.11001225e-14
aF0.0351142548
aF0.11449571
aF-0.026991237
aF0.0563493557
aF-0.0217923652
aF-0.0217923652
aF-3.11001225e-14
aF-3.11001225e-14
aF-3.11001225e-14
aF0.0448298976
aF-0.0836751014
aF0.0444429107
aF0.0129497815
aF-0.101231538
aF-0.101231538
aF-3.11001225e-14
aF-3.11001225e-14
aF-3.11001225e-14
aF0.000322245818
aF-0.131783798
aF0.0968476087
aF0.069843933
aF0.0970122069
aF0.0970122069
aF-3.11001225e-14
aF-3.11001225e-14
aF-3.11001225e-14
aF-0.0651026145
aF-0.313078076
aF-0.0796660557
aF-0.0555879213
aF-0.0965498164
aF-0.0965498164
aF-3.11001225e-14
aF-3.11001225e-14
aF-3.11001225e-14
aF0.174321368
aF0.240946501
aF0.0748160109
aF0.0525138415
aF-0.014578064
aF-0.014578064
aF-3.11001225e-14
aF-3.11001225e-14
aF-3.11001225e-14
aF0.0963016674
aF0.129969031
aF0.0306287669
aF-0.0255995169
aF0.0246557053
aF0.0246557053
aF-3.11001225e-14
aF-3.11001225e-14
aF-3.11001225e-14
aF-0.205520496
aF0.0384945795
aF-0.0257788207
aF0.0286736712
aF0.0864722505
aF0.0864722505
aF-3.11001225e-14
aF-3.11001225e-14
aF-3.11001225e-14
aF-0.152760014
aF-0.290705025
aF0.00931546185
aF-0.0423326381
aF-0.114752524
aF-0.114752524
aF-3.11001225e-14
aF-3.11001225e-14
aF-3.11001225e-14
aF0.0965244472
aF-0.0242654625
aF-0.09690357
aF-0.138185874
aF-0.00926584285
aF-0.00926584285
aF-3.11001225e-14
aF-3.11001225e-14
aF-3.11001225e-14
aF0.0602156967
aF-0.0860499218
aF0.0160709564
aF0.0202883929
aF-0.00699172216
aF-0.00699172216
aF-3.11001225e-14
aF-3.11001225e-14
aF-3.11001225e-14
aF-0.00398009922
aF0.401020527
aF0.0715171918
aF0.160230011
aF0.131009981
aF0.131009981
aF-3.11001225e-14
aF-3.11001225e-14
aF-3.11001225e-14
aF-0.0479737036
aF0.267020345
aF-0.0674225092
aF-0.0839708969
aF-0.0251856819
aF-0.0251856819
aF-3.11001225e-14
aF-3.11001225e-14
aF-3.11001225e-14
aF0.0712870136
aF-0.248728961
aF-0.0178665686
aF0.0169567335
aF-0.00782183278
aF-0.00782183278
aF-3.11001225e-14
aF-3.11001225e-14
aF-3.11001225e-14
aF-0.0127220051
aF-0.243640557
aF-0.0733864903
aF0.000774345535
aF0.143321574
aF0.143321574
aF-3.11001225e-14
aF-3.11001225e-14
aF-3.11001225e-14
aF-0.0105913123
aF0.225349233
aF0.11451634
aF0.022080563
aF-0.110314034
aF-0.110314034
aF-3.11001225e-14
aF-3.11001225e-14
aF-3.11001225e-14
aF-0.10766881
aF-0.105716243
aF0.0229957681
aF0.0805718228
aF-0.00585855823
aF-0.00585855823
aF-3.11001225e-14
aF-3.11001225e-14
aF-3.11001225e-14
aF0.0618644804
aF0.048163563
aF0.0126303332
aF-0.0257606767
aF-0.0227783732
aF-0.0227783732
aF-3.11001225e-14
aF-3.11001225e-14
aF-3.11001225e-14
aF-0.0291939005
aF-0.0882061645
aF0.0944514647
aF-0.00852283649
aF-0.00730042392
aF-0.00730042392
aF-3.11001225e-14
aF-3.11001225e-14
aF-3.11001225e-14
aF0.0749982446
aF0.145758897
aF-0.130077645
aF-0.0462883711
aF0.0359373018
aF0.0359373018
aF-3.11001225e-14
aF-3.11001225e-14
aF-3.11001225e-14
aF-0.088095963
aF0.00303954119
aF-0.00388768874
aF-0.0178070366
aF-0.00804507453
aF-0.00804507453
aF-3.11001225e-14
aF-3.11001225e-14
aF-3.11001225e-14
aF-0.132218868
aF0.153864592
aF0.0760449469
aF0.00557789393
aF-0.073908329
aF-0.073908329
aF-3.11001225e-14
aF-3.11001225e-14
aF-3.11001225e-14
aF0.101243727
aF-0.150634706
aF-0.178788975
aF-0.0774449855
aF0.00872939732
aF0.00872939732
aF-3.11001225e-14
aF-3.11001225e-14
aF-3.11001225e-14
aF0.119071178
aF-0.00626941444
aF0.106631681
aF0.0896742046
aF0.0732239485
aF0.0732239485
aF-3.11001225e-14
aF-3.11001225e-14
aF-3.11001225e-14
aF0.00164017361
aF-0.0369665474
aF-0.0816567391
aF-0.104515076
aF0.124330103
aF0.124330103
aF-3.11001225e-14
aF-3.11001225e-14
aF-3.11001225e-14
aF-0.0905478746
aF0.0949894562
aF0.060130097
aF0.0751392618
aF-0.0619979016
aF-0.0619979016
aF-3.11001225e-14
aF-3.11001225e-14
aF-3.11001225e-14
aF0.236249968
aF0.0359914266
aF-0.120406389
aF-0.0360316448
aF0.0568232723
aF0.0568232723
aF-3.11001225e-14
aF-3.11001225e-14
aF-3.11001225e-14
aF-0.0480715185
aF0.00525641581
aF-0.10864082
aF-0.0206800234
aF-0.0198847707
aF-0.0198847707
aF-3.11001225e-14
aF-3.11001225e-14
aF-3.11001225e-14
aF-0.051898662
aF-0.150507748
aF-0.167876646
aF-0.194681823
aF-0.0199711788
aF-0.0199711788
aF-3.11001225e-14
aF-3.11001225e-14
aF-3.11001225e-14
aF0.0878015831
aF0.0692763627
aF0.108223386
aF0.0805972517
aF0.132905573
aF0.132905573
aF-3.11001225e-14
aF-3.11001225e-14
aF-3.11001225e-14
aF-0.109517306
aF-0.150437847
aF0.097003676
aF0.0884794965
aF-0.0994018912
aF-0.0994018912
aF-3.11001225e-14
aF-3.11001225e-14
aF-3.11001225e-14
aF0.0736144409
aF0.231669262
aF-0.0373503231
aF0.0256051682
aF-0.0135324979
aF-0.0135324979
aF-3.11001225e-14
aF-3.11001225e-14
aF-3.11001225e-14
aF-0.0353358202
aF-0.0593099333
aF-0.0684448108
aF-0.200232118
aF0.0392973609
aF0.0392973609
aF-3.11001225e-14
aF-3.11001225e-14
aF-3.11001225e-14
aF-0.104771651
aF0.274137378
aF0.0153672704
aF0.107455984
aF0.0850624591
aF0.0850624591
aF-3.11001225e-14
aF-3.11001225e-14
aF-3.11001225e-14
aF0.0975327939
aF-0.190536186
aF0.0818243176
aF0.0712038353
aF-0.0448009148
aF-0.0448009148
aF-3.11001225e-14
aF-3.11001225e-14
aF-3.11001225e-14
aF0.138906747
aF0.0720407814
aF0.0675852299
aF0.117904469
aF0.0167732108
aF0.0167732108
aF-3.11001225e-14
aF-3.11001225e-14
aF-3.11001225e-14
aF-0.0446940511
aF0.0234503113
aF-0.13896592
aF-0.110545821
aF-0.025411088
aF-0.025411088
aF-3.11001225e-14
aF-3.11001225e-14
aF-3.11001225e-14
aF0.0335177556
aF-0.16802521
aF-0.0241596084
aF0.052116394
aF0.101516806
aF0.101516806
aF-3.11001225e-14
aF-3.11001225e-14
aF-3.11001225e-14
aF-0.00157876371
aF-0.0463083014
aF0.0315742902
aF-0.0105473408
aF-0.0738346651
aF-0.0738346651
aF-3.11001225e-14
aF-3.11001225e-14
aF-3.11001225e-14
aF0.012755096
aF0.190883115
aF0.131551281
aF0.0689768195
aF-0.0022709521
aF-0.0022709521
aF-3.11001225e-14
aF-3.11001225e-14
aF-3.11001225e-14
aF-0.283114463
aF0.0167069975
aF-0.109554775
aF-0.00836864766
aF0.0129585359
aF0.0129585359
aF-3.11001225e-14
aF-3.11001225e-14
aF-3.11001225e-14
aF0.0592523739
aF-0.0250397734
aF-0.132119402
aF-0.191818908
aF-0.0859438926
aF-0.0859438926
aF-3.11001225e-14
aF-3.11001225e-14
aF-3.11001225e-14
aF-0.0157707334
aF-0.0855951309
aF0.0975258723
aF0.100502074
aF0.03842213
aF0.03842213
aF-3.11001225e-14
aF-3.11001225e-14
aF-3.11001225e-14
aF0.23963277
aF0.0939278454
aF0.144148305
aF0.0996855348
aF0.0345632322
aF0.0345632322
aF-3.11001225e-14
aF-3.11001225e-14
aF-3.11001225e-14
aF-0.0864924118
aF-0.0942174569
aF-0.0270907115
aF-0.0518684536
aF-0.00680291746
aF-0.00680291746
aF-3.11001225e-14
aF-3.11001225e-14
aF-3.11001225e-14
aF0.0405628458
aF-0.100036256
aF-0.0226683393
aF0.0830398872
aF-0.0665799677
aF-0.0665799677
aF-3.11001225e-14
aF-3.11001225e-14
aF-3.11001225e-14
aF-0.0111145424
aF0.189067647
aF0.0498358607
aF0.0149119273
aF0.0343669765
aF0.0343669765
aF-3.11001225e-14
aF-3.11001225e-14
aF-3.11001225e-14
aF0.0570441671
aF0.0051860488
aF-7.6751814e-05
aF-0.0460831337
aF0.0390158743
aF0.0390158743
aF-3.11001225e-14
aF-3.11001225e-14
aF-3.11001225e-14
aF0.0269374363
aF-0.0789666921
aF-0.0857338533
aF8.59510619e-05
aF0.0170113109
aF0.0170113109
aF-3.11001225e-14
aF-3.11001225e-14
aF-3.11001225e-14
aF-0.189232543
aF-0.0806451812
aF-0.0634412766
aF-0.0932286605
aF-0.018415112
aF-0.018415112
aF-3.11001225e-14
aF-3.11001225e-14
aF-3.11001225e-14
aF0.0142588867
aF0.152217001
aF0.116107285
aF0.0670523569
aF0.00975534227
aF0.00975534227
aF-3.11001225e-14
aF-3.11001225e-14
aF-3.11001225e-14
aF0.148036286
aF0.00739477016
aF0.0330678038
aF0.0260903239
aF-0.00835152157
aF-0.00835152157
aF-3.11001225e-14
aF-3.11001225e-14
aF-3.11001225e-14
aF-0.0762881115
aF-0.111695081
aF-0.00850082003
aF0.0413080305
aF0.000781232549
aF0.000781232549
aF-3.11001225e-14
aF-3.11001225e-14
aF-3.11001225e-14
aF0.0804639086
aF0.213944837
aF-0.146458417
aF-0.140550658
aF0.159070283
aF0.159070283
aF-3.11001225e-14
aF-3.11001225e-14
aF-3.11001225e-14
aF0.0444611385
aF-0.0279947016
aF-0.0585452057
aF-0.125725895
aF0.0392253622
aF0.0392253622
aF-3.11001225e-14
aF-3.11001225e-14
aF-3.11001225e-14
aF-0.0486369394
aF0.0626999289
aF0.0281463936
aF0.0396104977
aF-0.199076772
aF-0.199076772
aF-3.11001225e-14
aF-3.11001225e-14
aF-3.11001225e-14
aF-0.126181483
aF0.056255646
aF0.0697628856
aF-0.00430562394
aF-0.0377600268
aF-0.0377600268
aF-3.11001225e-14
aF-3.11001225e-14
aF-3.11001225e-14
aF0.0253067184
aF-0.177486569
aF-0.0908338726
aF-0.00697110873
aF0.032928884
aF0.032928884
aF-3.11001225e-14
aF-3.11001225e-14
aF-3.11001225e-14
aF0.0760843456
aF0.19972226
aF0.0483089909
aF-0.0541246571
aF-0.112136364
aF-0.112136364
aF-3.11001225e-14
aF-3.11001225e-14
aF-3.11001225e-14
aF0.0247903056
aF0.0511880517
aF-0.0272380803
aF0.065401502
aF0.116967455
aF0.116967455
aF-3.11001225e-14
aF-3.11001225e-14
aF-3.11001225e-14
aF-0.0670139045
aF-0.0605457798
aF0.004557095
aF0.022158375
aF-0.00633195927
aF-0.00633195927
aF-3.11001225e-14
aF-3.11001225e-14
aF-3.11001225e-14
aF0.0598942079
aF0.150179714
aF0.00501723867
aF0.0327789597
aF0.0999805182
aF0.0999805182
aF-3.11001225e-14
aF-3.11001225e-14
aF-3.11001225e-14
aF0.139063716
aF0.0201089066
aF0.114656381
aF0.0765872449
aF0.0047849738
aF0.0047849738
aF-3.11001225e-14
aF-3.11001225e-14
aF-3.11001225e-14
aF-0.0356121138
aF-0.0134108383
aF-0.0278985836
aF-0.0351925828
aF-0.00210142252
aF-0.00210142252
aF-3.11001225e-14
aF-3.11001225e-14
aF-3.11001225e-14
aF-0.0538320392
aF-0.0905860141
aF-0.0262637008
aF-0.0308432393
aF-0.0460145175
aF-0.0460145175
aF-3.11001225e-14
aF-3.11001225e-14
aF-3.11001225e-14
aF-0.149792776
aF0.0735281035
aF-0.107855126
aF-0.134077176
aF0.0169379953
aF0.0169379953
aF-3.11001225e-14
aF-3.11001225e-14
aF-3.11001225e-14
aF0.164041743
aF0.179831028
aF-0.0245458242
aF-0.0584506728
aF-0.130396292
aF-0.130396292
aF-3.11001225e-14
aF-3.11001225e-14
aF-3.11001225e-14
aF0.0395829566
aF-0.162773207
aF0.158664584
aF0.223371163
aF0.159472853
aF0.159472853
aF-3.11001225e-14
aF-3.11001225e-14
aF-3.11001225e-14
aF-0.129002288
aF0.111377232
aF-0.0672154427
aF-0.0782078281
aF0.0588235036
aF0.0588235036
aF-3.11001225e-14
aF-3.11001225e-14
aF-3.11001225e-14
aF-0.0964217335
aF-0.199979886
aF0.0348180942
aF-0.0370097235
aF-0.0149678951
aF-0.0149678951
aF-3.11001225e-14
aF-3.11001225e-14
aF-3.11001225e-14
aF0.0468214676
aF0.130564243
aF0.000855907914
aF0.040474724
aF-0.00907506701
aF-0.00907506701
aF-3.11001225e-14
aF-3.11001225e-14
aF-3.11001225e-14
aF0.178602502
aF-0.0419616327
aF0.0315414481
aF0.0747429505
aF-0.0347806476
aF-0.0347806476
aF-3.11001225e-14
aF-3.11001225e-14
aF-3.11001225e-14
aF-0.204991445
aF-0.0793307424
aF-0.0164720453
aF-0.102442406
aF-0.00379738864
aF-0.00379738864
aF-3.11001225e-14
aF-3.11001225e-14
aF-3.11001225e-14
aF-0.123383723
aF0.00873147789
aF-0.133579507
aF-0.192861676
aF0.0332470983
aF0.0332470983
aF-3.11001225e-14
aF-3.11001225e-14
aF-3.11001225e-14
aF0.124065295
aF0.280122221
aF-0.000320422609
aF0.0918694437
aF-0.00369808497
aF-0.00369808497
aF-3.11001225e-14
aF-3.11001225e-14
aF-3.11001225e-14
aF0.204309925
aF-0.209523067
aF0.150371924
aF0.203434482
aF-0.025751574
aF-0.025751574
aF-3.11001225e-14
aF-3.11001225e-14
aF-3.11001225e-14
aF-0.0870203897
aF-0.143014982
aF-0.0873830244
aF-0.253555328
aF-0.0478836596
aF-0.0478836596
aF-3.11001225e-14
aF-3.11001225e-14
aF-3.11001225e-14
aF-0.0200394001
aF-0.0663516745
aF0.0482998677
aF-0.0985065997
aF-0.0500379391
aF-0.0500379391
aF-3.11001225e-14
aF-3.11001225e-14
aF-3.11001225e-14
aF-0.0357080698
aF0.269491941
aF0.032226909
aF-0.00655299844
aF0.00387606677
aF0.00387606677
aF-3.11001225e-14
aF-3.11001225e-14
aF-3.11001225e-14
aF0.142767951
aF-0.0601254217
aF0.00685614673
aF0.0634524971
aF0.0940454602
aF0.0940454602
aF-3.11001225e-14
aF-3.11001225e-14
aF-3.11001225e-14
aF-0.0684813857
aF0.103642613
aF0.105917133
aF0.0284163225
aF0.0580994226
aF0.0580994226
aF-3.11001225e-14
aF-3.11001225e-14
aF-3.11001225e-14
aF-0.130550101
aF-0.134735748
aF-0.0496109053
aF-0.0918407589
aF-0.0257940441
aF-0.0257940441
aF-3.11001225e-14
aF-3.11001225e-14
aF-3.11001225e-14
aF0.285984486
aF-0.0922771096
aF0.0579970516
aF0.114936374
aF0.0544781238
aF0.0544781238
aF-3.11001225e-14
aF-3.11001225e-14
aF-3.11001225e-14
aF0.0500020981
aF0.260325342
aF0.0428561717
aF0.105647519
aF-0.0867834464
aF-0.0867834464
aF-3.11001225e-14
aF-3.11001225e-14
aF-3.11001225e-14
aF-0.0550494045
aF-0.11281918
aF0.209728315
aF0.109036915
aF-0.0874845535
aF-0.0874845535
aF-3.11001225e-14
aF-3.11001225e-14
aF-3.11001225e-14
aF-0.00114014803
aF0.0567970313
aF-0.223451018
aF-0.131792322
aF0.124319285
aF0.124319285
aF-3.11001225e-14
aF-3.11001225e-14
aF-3.11001225e-14
aF-0.102802239
aF0.0170515142
aF-0.120421611
aF-0.146705508
aF-0.044131279
aF-0.044131279
aF-3.11001225e-14
aF-3.11001225e-14
aF-3.11001225e-14
aF0.158991739
aF0.0389706567
aF0.134144276
aF0.169460863
aF0.00729643926
aF0.00729643926
aF-3.11001225e-14
aF-3.11001225e-14
aF-3.11001225e-14
aF-0.101242572
aF0.114427581
aF-0.0190854687
aF-0.0246885438
aF-0.0157038122
aF-0.0157038122
aF-3.11001225e-14
aF-3.11001225e-14
aF-3.11001225e-14
aF0.0156257823
aF0.0797557309
aF-0.0362750851
aF-0.049589958
aF0.0206899997
aF0.0206899997
aF-3.11001225e-14
aF-3.11001225e-14
aF-3.11001225e-14
aF0.0808589309
aF-0.218726292
aF0.0338796116
aF0.0409119688
aF-0.00811979454
aF-0.00811979454
aF-3.11001225e-14
aF-3.11001225e-14
aF-3.11001225e-14
aF0.101089872
aF0.120875195
aF0.117813051
aF0.129698545
aF0.0994655713
aF0.0994655713
aF-3.11001225e-14
aF-3.11001225e-14
aF-3.11001225e-14
aF-0.128557011
aF-0.0172316786
aF0.0462401807
aF-0.0199813247
aF0.0133416979
aF0.0133416979
aF-3.11001225e-14
aF-3.11001225e-14
aF-3.11001225e-14
aF0.0149133513
aF0.04011558
aF-0.0406211913
aF-0.0588558316
aF0.0443364717
aF0.0443364717
aF-3.11001225e-14
aF-3.11001225e-14
aF-3.11001225e-14
aF0.132096171
aF-0.00459570577
aF0.110829569
aF0.102965012
aF-0.016396001
aF-0.016396001
aF-3.11001225e-14
aF-3.11001225e-14
aF-3.11001225e-14
aF0.0778795034
aF0.078043811
aF-0.020116495
aF0.0722041652
aF0.0550499596
aF0.0550499596
aF-3.11001225e-14
aF-3.11001225e-14
aF-3.11001225e-14
aF-0.097449407
aF-0.0770649388
aF-0.158187136
aF-0.189955652
aF0.0119586
aF0.0119586
aF-3.11001225e-14
aF-3.11001225e-14
aF-3.11001225e-14
aF0.00276705204
aF-0.159165397
aF0.0222032871
aF0.0607016608
aF0.13479653
aF0.13479653
aF-3.11001225e-14
aF-3.11001225e-14
aF-3.11001225e-14
aF0.057115566
aF0.308321208
aF-0.0222726036
aF0.0511667915
aF-0.00121490343
aF-0.00121490343
aF-3.11001225e-14
aF-3.11001225e-14
aF-3.11001225e-14
aF0.0375667252
aF-0.0720909908
aF0.158256441
aF0.0780871511
aF-0.145540223
aF-0.145540223
aF-3.11001225e-14
aF-3.11001225e-14
aF-3.11001225e-14
aF-0.0741398931
aF-0.0778328702
aF-0.00623337133
aF0.0725910068
aF-0.0787912607
aF-0.0787912607
aF-3.11001225e-14
aF-3.11001225e-14
aF-3.11001225e-14
aF-0.0413418002
aF-0.289251506
aF-0.0238852128
aF-0.0259460378
aF0.0700288266
aF0.0700288266
aF-3.11001225e-14
aF-3.11001225e-14
aF-3.11001225e-14
aF0.0438702479
aF0.248388454
aF0.0637989789
aF-0.0225577839
aF-0.0492573269
aF-0.0492573269
aF-3.11001225e-14
aF-3.11001225e-14
aF-3.11001225e-14
aF0.0716114268
aF0.118695825
aF-0.0336804576
aF-0.0240871757
aF0.0580198653
aF0.0580198653
aF-3.11001225e-14
aF-3.11001225e-14
aF-3.11001225e-14
aF-0.238888264
aF-0.0550267585
aF-0.145265207
aF-0.145769671
aF-0.0219482556
aF-0.0219482556
aF-3.11001225e-14
aF-3.11001225e-14
aF-3.11001225e-14
aF0.146412268
aF-0.0073016691
aF-0.0876898766
aF-0.0260339249
aF0.0714410916
aF0.0714410916
aF-3.11001225e-14
aF-3.11001225e-14
aF-3.11001225e-14
aF0.0492317528
aF0.116878435
aF0.105038904
aF0.0892198309
aF0.0266169962
aF0.0266169962
aF-3.11001225e-14
aF-3.11001225e-14
aF-3.11001225e-14
aF0.0432441682
aF-0.0545499437
aF0.127916157
aF0.0825837627
aF-0.0761098564
aF-0.0761098564
aF-3.11001225e-14
aF-3.11001225e-14
aF-3.11001225e-14
aF-0.190076351
aF0.054404024
aF0.0293265376
aF0.0696966499
aF-0.096954681
aF-0.096954681
aF-3.11001225e-14
aF-3.11001225e-14
aF-3.11001225e-14
aF0.230137497
aF0.0294134021
aF-0.0504480638
aF0.00132506434
aF0.0236091074
aF0.0236091074
aF-3.11001225e-14
aF-3.11001225e-14
aF-3.11001225e-14
aF0.0447413884
aF0.0324118212
aF0.0329971574
aF0.0659542084
aF-0.00816815626
aF-0.00816815626
aF-3.11001225e-14
aF-3.11001225e-14
aF-3.11001225e-14
aF-0.084802568
aF-0.0710999966
aF0.0834057853
aF-0.0416942686
aF0.0815135837
aF0.0815135837
aF-3.11001225e-14
aF-3.11001225e-14
aF-3.11001225e-14
aF-0.139447004
aF-0.236964107
aF0.000393732655
aF-0.0190094654
aF0.067812629
aF0.067812629
aF-3.11001225e-14
aF-3.11001225e-14
aF-3.11001225e-14
aF0.0641341209
aF0.11567381
aF-0.191972375
aF-0.130455986
aF0.107134141
aF0.107134141
aF-3.11001225e-14
aF-3.11001225e-14
aF-3.11001225e-14
aF0.0796919465
aF0.246489823
aF0.256200403
aF0.171230778
aF-0.0781777948
aF-0.0781777948
aF-3.11001225e-14
aF-3.11001225e-14
aF-3.11001225e-14
aF-0.00437903451
aF0.0210111383
aF0.0815887824
aF0.124445215
aF0.0494415984
aF0.0494415984
aF-3.11001225e-14
aF-3.11001225e-14
aF-3.11001225e-14
aF-0.0497105718
aF0.0208471399
aF-0.075007543
aF-0.0781904459
aF-0.0321743786
aF-0.0321743786
aF-3.11001225e-14
aF-3.11001225e-14
aF-3.11001225e-14
aF0.0204588212
aF0.00869142637
aF-0.146176904
aF-0.108808696
aF0.189467445
aF0.189467445
aF-3.11001225e-14
aF-3.11001225e-14
aF-3.11001225e-14
aF-0.201096594
aF0.00117167493
aF0.0472221412
aF0.0501529537
aF-0.00505949464
aF-0.00505949464
aF-3.11001225e-14
aF-3.11001225e-14
aF-3.11001225e-14
aF0.230348393
aF0.0656218976
aF0.270294368
aF0.233178154
aF-0.0559014864
aF-0.0559014864
aF-3.11001225e-14
aF-3.11001225e-14
aF-3.11001225e-14
aF-0.00970422849
aF-0.0230513662
aF-0.086664252
aF-0.108944394
aF0.074583225
aF0.074583225
aF-3.11001225e-14
aF-3.11001225e-14
aF-3.11001225e-14
aF-0.132810235
aF-0.0689399391
aF0.030062506
aF0.115487523
aF0.105696365
aF0.105696365
aF-3.11001225e-14
aF-3.11001225e-14
aF-3.11001225e-14
aF0.193156794
aF0.152296752
aF0.0290238634
aF-0.0855009258
aF-0.121137291
aF-0.121137291
aF-3.11001225e-14
aF-3.11001225e-14
aF-3.11001225e-14
aF0.0456896238
aF0.0360265747
aF0.123909943
aF0.17528981
aF0.0371897593
aF0.0371897593
aF-3.11001225e-14
aF-3.11001225e-14
aF-3.11001225e-14
aF-0.14684774
aF-0.174221084
aF-0.0304961391
aF0.0286334455
aF-0.00175459718
aF-0.00175459718
aF-3.11001225e-14
aF-3.11001225e-14
aF-3.11001225e-14
aF-0.149935693
aF-0.150227696
aF-0.0111825969
aF-0.0886994153
aF-0.0879328325
aF-0.0879328325
aF-3.11001225e-14
aF-3.11001225e-14
aF-3.11001225e-14
aF0.0748107061
aF0.17271477
aF-0.0683042184
aF-0.0427727625
aF0.0621834099
aF0.0621834099
aF-3.11001225e-14
aF-3.11001225e-14
aF-3.11001225e-14
aF0.221972853
aF0.248066083
aF0.109982893
aF0.102838792
aF0.0275041088
aF0.0275041088
aF-3.11001225e-14
aF-3.11001225e-14
aF-3.11001225e-14
aF-0.0368397012
aF-0.0973194093
aF-0.0748742595
aF-0.13420631
aF-0.0607737601
aF-0.0607737601
aF-3.11001225e-14
aF-3.11001225e-14
aF-3.11001225e-14
aF-0.168645591
aF-0.0447601788
aF-0.0289846286
aF0.0166171305
aF0.116057046
aF0.116057046
aF-3.11001225e-14
aF-3.11001225e-14
aF-3.11001225e-14
aF0.109666236
aF0.147611558
aF0.0158878434
aF0.0817315727
aF-0.039372582
aF-0.039372582
aF-3.11001225e-14
aF-3.11001225e-14
aF-3.11001225e-14
aF0.0958189815
aF-0.00553198624
aF0.087971054
aF0.0358575881
aF-0.0159107428
aF-0.0159107428
aF-3.11001225e-14
aF-3.11001225e-14
aF-3.11001225e-14
aF-0.133145615
aF-0.110847287
aF-0.251456201
aF-0.254638106
aF-0.027395485
aF-0.027395485
aF-3.11001225e-14
aF-3.11001225e-14
aF-3.11001225e-14
aF-0.022462979
aF0.0343704298
aF-0.108538345
aF-0.0515159518
aF0.03647843
aF0.03647843
aF-3.11001225e-14
aF-3.11001225e-14
aF-3.11001225e-14
aF0.0748927146
aF-0.0199436434
aF0.25055781
aF0.197703078
aF0.0057628504
aF0.0057628504
aF-3.11001225e-14
aF-3.11001225e-14
aF-3.11001225e-14
aF0.0807159394
aF0.0964205265
aF0.109436773
aF0.108450979
aF-0.0148458704
aF-0.0148458704
aF-3.11001225e-14
aF-3.11001225e-14
aF-3.11001225e-14
aF-0.0559959114
aF-0.019675782
aF-0.0682108179
aF-0.0602280386
aF-0.0607000813
aF-0.0607000813
aF-3.11001225e-14
aF-3.11001225e-14
aF-3.11001225e-14
aF0.0912193209
aF0.00481347879
aF0.0395636298
aF-0.0548957586
aF0.117304727
aF0.117304727
aF-3.11001225e-14
aF-3.11001225e-14
aF-3.11001225e-14
aF0.0616830066
aF0.119490542
aF0.0696396157
aF0.102913432
aF0.161897182
aF0.161897182
aF-3.11001225e-14
aF-3.11001225e-14
aF-3.11001225e-14
aF0.038168136
aF0.210844249
aF0.127874643
aF0.181077421
aF-0.0834273323
aF-0.0834273323
aF-3.11001225e-14
aF-3.11001225e-14
aF-3.11001225e-14
aF0.0561937205
aF-0.0262374487
aF-0.0113993706
aF-0.159647614
aF-0.00857071672
aF-0.00857071672
aF-3.11001225e-14
aF-3.11001225e-14
aF-3.11001225e-14
aF0.0597897433
aF-0.0303175058
aF-0.0432658046
aF-0.0434700213
aF0.124012113
aF0.124012113
aF-3.11001225e-14
aF-3.11001225e-14
aF-3.11001225e-14
aF-0.264439255
aF-0.0442589335
aF0.0071750991
aF0.000365092914
aF-0.0803664625
aF-0.0803664625
aF-3.11001225e-14
aF-3.11001225e-14
aF-3.11001225e-14
aF0.148455828
aF0.100813843
aF0.142771602
aF0.298034102
aF-0.0350749493
aF-0.0350749493
aF-3.11001225e-14
aF-3.11001225e-14
aF-3.11001225e-14
aF-0.0692345276
aF-0.0888332129
aF0.140347898
aF0.126920044
aF0.0147677623
aF0.0147677623
aF-3.11001225e-14
aF-3.11001225e-14
aF-3.11001225e-14
aF0.0497315414
aF0.170391396
aF-0.124683499
aF-0.188569352
aF0.120353319
aF0.120353319
aF-3.11001225e-14
aF-3.11001225e-14
aF-3.11001225e-14
aF-0.14841345
aF-0.223043352
aF-0.0886933133
aF-0.00429262966
aF-0.162909642
aF-0.162909642
aF-3.11001225e-14
aF-3.11001225e-14
aF-3.11001225e-14
aF0.167916402
aF0.141485155
aF0.0730288923
aF0.0659418628
aF0.0277886223
aF0.0277886223
aF-3.11001225e-14
aF-3.11001225e-14
aF-3.11001225e-14
aF-0.0720376596
aF-0.0949110389
aF0.0546952747
aF-0.011048465
aF-0.0940672457
aF-0.0940672457
aF-3.11001225e-14
aF-3.11001225e-14
aF-3.11001225e-14
aF0.00857295375
aF0.0387027897
aF0.0559861399
aF0.125830516
aF0.0937895477
aF0.0937895477
aF-3.11001225e-14
aF-3.11001225e-14
aF-3.11001225e-14
aF0.0213685296
aF0.0643206164
aF-0.117327556
aF-0.154201508
aF-0.0295238104
aF-0.0295238104
aF-3.11001225e-14
aF-3.11001225e-14
aF-3.11001225e-14
aF0.0420961268
aF-0.00811236631
aF0.102978274
aF0.135751575
aF0.029801514
aF0.029801514
aF-3.11001225e-14
aF-3.11001225e-14
aF-3.11001225e-14
aF-0.113314509
aF-0.152046338
aF-0.196305111
aF-0.18450059
aF0.0497223958
aF0.0497223958
aF-3.11001225e-14
aF-3.11001225e-14
aF-3.11001225e-14
aF-0.0697497874
aF0.035190586
aF0.135920346
aF0.175965786
aF0.0659981444
aF0.0659981444
aF-3.11001225e-14
aF-3.11001225e-14
aF-3.11001225e-14
aF0.162566051
aF0.0498156697
aF-0.0534189865
aF-0.0401504859
aF-0.0682087988
aF-0.0682087988
aF-3.11001225e-14
aF-3.11001225e-14
aF-3.11001225e-14
aF0.0204982478
aF0.0670401379
aF0.210135847
aF0.145017192
aF-0.047511749
aF-0.047511749
aF-3.11001225e-14
aF-3.11001225e-14
aF-3.11001225e-14
aF-0.026087977
aF-0.325231314
aF-0.14968881
aF-0.0839154571
aF0.0106597124
aF0.0106597124
aF-3.11001225e-14
aF-3.11001225e-14
aF-3.11001225e-14
aF0.0336482599
aF0.291220635
aF-0.103238702
aF-0.0775670335
aF0.0541379303
aF0.0541379303
aF-3.11001225e-14
aF-3.11001225e-14
aF-3.11001225e-14
aF0.0951793864
aF0.127910927
aF0.175096214
aF0.121652603
aF0.049948521
aF0.049948521
aF-3.11001225e-14
aF-3.11001225e-14
aF-3.11001225e-14
aF-0.102739841
aF-0.0939002931
aF0.0778313652
aF0.0398299843
aF-0.114746086
aF-0.114746086
aF-3.11001225e-14
aF-3.11001225e-14
aF-3.11001225e-14
aF0.0748359188
aF-0.161908105
aF0.0172581356
aF-0.00830757432
aF-0.0179156475
aF-0.0179156475
aF-3.11001225e-14
aF-3.11001225e-14
aF-3.11001225e-14
aF-0.0961967036
aF-0.00290705776
aF-0.127021804
aF-0.0388633348
aF0.0609296449
aF0.0609296449
aF-3.11001225e-14
aF-3.11001225e-14
aF-3.11001225e-14
aF0.0703672916
aF0.0750686079
aF0.13411507
aF0.0698220581
aF-0.0479481444
aF-0.0479481444
aF-3.11001225e-14
aF-3.11001225e-14
aF-3.11001225e-14
aF-0.0490064994
aF0.0897464454
aF-0.0243514404
aF-0.0226512272
aF0.00493419636
aF0.00493419636
aF-3.11001225e-14
aF-3.11001225e-14
aF-3.11001225e-14
aF-0.0148501256
aF0.0307325274
aF-0.00659047021
aF-0.0899571255
aF-0.0125171579
aF-0.0125171579
aF-3.11001225e-14
aF-3.11001225e-14
aF-3.11001225e-14
aF0.0666661114
aF-0.00729109999
aF-0.0270387121
aF-0.0454912223
aF0.0791555047
aF0.0791555047
aF-3.11001225e-14
aF-3.11001225e-14
aF-3.11001225e-14
aF-0.0716639906
aF0.0785515234
aF-0.0530317239
aF-0.113760583
aF-0.0182148088
aF-0.0182148088
aF-3.11001225e-14
aF-3.11001225e-14
aF-3.11001225e-14
aF0.0198480375
aF-0.10199292
aF0.221735537
aF0.205693528
aF-0.0484235026
aF-0.0484235026
aF-3.11001225e-14
aF-3.11001225e-14
aF-3.11001225e-14
aF-0.239275292
aF-0.0996286795
aF-0.0667891949
aF-0.139476627
aF0.0400273576
aF0.0400273576
aF-3.11001225e-14
aF-3.11001225e-14
aF-3.11001225e-14
aF0.0950457156
aF0.0726489648
aF-0.058935266
aF-0.00511043007
aF-0.0167673323
aF-0.0167673323
aF-3.11001225e-14
aF-3.11001225e-14
aF-3.11001225e-14
aF0.146773547
aF-0.060181167
aF0.0521244816
aF0.0256478153
aF-0.0100878617
aF-0.0100878617
aF-3.11001225e-14
aF-3.11001225e-14
aF-3.11001225e-14
aF-0.00254404731
aF0.0871608928
aF0.168881595
aF0.214220673
aF-0.0131720435
aF-0.0131720435
aF-3.11001225e-14
aF-3.11001225e-14
aF-3.11001225e-14
aF-0.272007346
aF-0.1520987
aF-0.131296992
aF-0.105098531
aF-0.00108218519
aF-0.00108218519
aF-3.11001225e-14
aF-3.11001225e-14
aF-3.11001225e-14
aF0.16906777
aF-0.369201303
aF0.0177811142
aF-0.0198828895
aF0.0547279306
aF0.0547279306
aF-3.11001225e-14
aF-3.11001225e-14
aF-3.11001225e-14
aF0.0858663768
aF0.224235818
aF0.171861932
aF0.245991066
aF-0.0769333169
aF-0.0769333169
aF-3.11001225e-14
aF-3.11001225e-14
aF-3.11001225e-14
aF0.0170731638
aF0.297064334
aF-0.0583460294
aF-0.121009536
aF0.0232876316
aF0.0232876316
aF-3.11001225e-14
aF-3.11001225e-14
aF-3.11001225e-14
aF0.091587849
aF-0.0509091951
aF0.00745200226
aF-0.0369464755
aF-0.00248915795
aF-0.00248915795
aF-3.11001225e-14
aF-3.11001225e-14
aF-3.11001225e-14
aF-0.0990256369
aF0.262887895
aF-0.0809581727
aF-0.0337156653
aF0.130557016
aF0.130557016
aF-3.11001225e-14
aF-3.11001225e-14
aF-3.11001225e-14
aF-0.0838575512
aF-0.0839458331
aF0.0827432498
aF0.0545492917
aF-0.163270995
aF-0.163270995
aF-3.11001225e-14
aF-3.11001225e-14
aF-3.11001225e-14
aF0.0912953168
aF-0.128032804
aF-0.00923708547
aF0.0161129031
aF0.0352033265
aF0.0352033265
aF-3.11001225e-14
aF-3.11001225e-14
aF-3.11001225e-14
aF-0.00633412832
aF-0.30308333
aF-0.0840115622
aF0.0072264974
aF-0.00241342001
aF-0.00241342001
aF-3.11001225e-14
aF-3.11001225e-14
aF-3.11001225e-14
aF0.147504359
aF-0.000853504695
aF0.00170327979
aF-0.0141926091
aF0.0575137176
aF0.0575137176
aF-3.11001225e-14
aF-3.11001225e-14
aF-3.11001225e-14
aF-0.0524001904
aF0.153923333
aF-0.000541395391
aF0.0208071359
aF0.0440409817
aF0.0440409817
aF-3.11001225e-14
aF-3.11001225e-14
aF-3.11001225e-14
aF-0.0887700319
aF0.150013372
aF0.0828496888
aF0.0824910402
aF-0.0991412848
aF-0.0991412848
aF-3.11001225e-14
aF-3.11001225e-14
aF-3.11001225e-14
aF-0.00285460078
aF-0.19032535
aF-0.00367491832
aF-0.0337375887
aF0.0307114013
aF0.0307114013
aF-3.11001225e-14
aF-3.11001225e-14
aF-3.11001225e-14
aF-0.0515322797
aF0.0508557521
aF-0.00392446946
aF-0.0359164625
aF0.0320167542
aF0.0320167542
aF-3.11001225e-14
aF-3.11001225e-14
aF-3.11001225e-14
aF0.0336277448
aF-0.0769786984
aF-0.0705613941
aF-0.0184195004
aF0.011214694
aF0.011214694
aF-3.11001225e-14
aF-3.11001225e-14
aF-3.11001225e-14
aF0.020759128
aF0.216448426
aF0.131757453
aF0.141670287
aF-0.0739428699
aF-0.0739428699
aF-3.11001225e-14
aF-3.11001225e-14
aF-3.11001225e-14
aF0.0298069492
aF-0.0574080013
aF0.0916768163
aF0.0335148908
aF-0.0033428981
aF-0.0033428981
aF-3.11001225e-14
aF-3.11001225e-14
aF-3.11001225e-14
aF0.0132402815
aF-0.0785891041
aF-0.106710151
aF-0.115407012
aF0.0296797231
aF0.0296797231
aF-3.11001225e-14
aF-3.11001225e-14
aF-3.11001225e-14
aF0.0275283586
aF0.00647760089
aF-0.10694363
aF-0.12468271
aF-0.0922852084
aF-0.0922852084
aF-3.11001225e-14
aF-3.11001225e-14
aF-3.11001225e-14
aF-0.109783128
aF-0.0983880013
aF0.0827693492
aF0.167367414
aF0.0267408434
aF0.0267408434
aF-3.11001225e-14
aF-3.11001225e-14
aF-3.11001225e-14
aF0.103188351
aF0.138991296
aF0.0740270913
aF0.0624099523
aF-0.0347153842
aF-0.0347153842
aF-3.11001225e-14
aF-3.11001225e-14
aF-3.11001225e-14
aF-0.0376008525
aF0.223102227
aF-0.17105712
aF-0.192291826
aF0.0404264331
aF0.0404264331
aF-3.11001225e-14
aF-3.11001225e-14
aF-3.11001225e-14
aF0.0712967589
aF-0.0934171602
aF-0.324285448
aF-0.385516733
aF-0.00732466159
aF-0.00732466159
aF-3.11001225e-14
aF-3.11001225e-14
aF-3.11001225e-14
aF-0.136884123
aF-0.0393774137
aF-0.0317684934
aF0.0623145998
aF0.00161366863
aF0.00161366863
aF-3.11001225e-14
aF-3.11001225e-14
aF-3.11001225e-14
aF-0.304806262
aF-0.118209973
aF-0.0164393745
aF-0.0336094759
aF0.0437327363
aF0.0437327363
aF-3.11001225e-14
aF-3.11001225e-14
aF-3.11001225e-14
aF0.02560197
aF-0.113073789
aF-0.164700076
aF-0.168284833
aF-0.00032816836
aF-0.00032816836
aF-3.11001225e-14
aF-3.11001225e-14
aF-3.11001225e-14
aF0.117686242
aF0.0767418295
aF0.0890615135
aF0.093914412
aF-0.128313109
aF-0.128313109
aF-3.11001225e-14
aF-3.11001225e-14
aF-3.11001225e-14
aF0.161517948
aF0.154541805
aF0.187359348
aF0.203261569
aF0.0849085376
aF0.0849085376
aF-3.11001225e-14
aF-3.11001225e-14
aF-3.11001225e-14
aF-0.0767229795
aF-0.0243065059
aF-0.0382317044
aF-0.00801867526
aF0.00574190868
aF0.00574190868
aF-3.11001225e-14
aF-3.11001225e-14
aF-3.11001225e-14
aF0.136053577
aF0.11266394
aF0.089366205
aF0.0439569913
aF0.197010651
aF0.197010651
aF-3.11001225e-14
aF-3.11001225e-14
aF-3.11001225e-14
aF-0.204133928
aF-0.0240440331
aF-0.0721695274
aF-0.0526071042
aF-0.179658413
aF-0.179658413
aF-3.11001225e-14
aF-3.11001225e-14
aF-3.11001225e-14
aF0.19840005
aF-0.0107167596
aF0.0746317133
aF0.0702653602
aF0.0305025447
aF0.0305025447
aF-3.11001225e-14
aF-3.11001225e-14
aF-3.11001225e-14
aF0.0492354967
aF-0.0577599034
aF-0.107972383
aF-0.150735676
aF0.0153113948
aF0.0153113948
aF-3.11001225e-14
aF-3.11001225e-14
aF-3.11001225e-14
aF-0.147248551
aF-0.0445195772
aF0.0440919809
aF0.0920388922
aF0.063278988
aF0.063278988
aF-3.11001225e-14
aF-3.11001225e-14
aF-3.11001225e-14
aF0.100453414
aF-0.0442853384
aF0.105902292
aF0.138009787
aF-0.0655761659
aF-0.0655761659
aF-3.11001225e-14
aF-3.11001225e-14
aF-3.11001225e-14
aF0.0511562191
aF0.200161487
aF0.0115747675
aF-0.0257163644
aF0.0405825227
aF0.0405825227
aF-3.11001225e-14
aF-3.11001225e-14
aF-3.11001225e-14
aF-0.0691203326
aF-0.112198584
aF-0.157071918
aF-0.114713497
aF0.104114324
aF0.104114324
aF-3.11001225e-14
aF-3.11001225e-14
aF-3.11001225e-14
aF-0.0816556513
aF0.0435123518
aF-0.0596285574
aF-0.0975210741
aF-0.00810575206
aF-0.00810575206
aF-3.11001225e-14
aF-3.11001225e-14
aF-3.11001225e-14
aF0.0727060363
aF0.0461180806
aF0.227814719
aF0.26596725
aF-0.0492773242
aF-0.0492773242
aF-3.11001225e-14
aF-3.11001225e-14
aF-3.11001225e-14
aF0.131666541
aF0.0761648417
aF0.0424825288
aF-0.000136010887
aF0.00686535891
aF0.00686535891
aF-3.11001225e-14
aF-3.11001225e-14
aF-3.11001225e-14
aF0.00879423507
aF-0.0864892304
aF0.0419445969
aF0.0267799478
aF0.0189097896
aF0.0189097896
aF-3.11001225e-14
aF-3.11001225e-14
aF-3.11001225e-14
aF-0.0535474382
aF-0.00949401222
aF0.0883772299
aF0.0506341942
aF-0.0290758293
aF-0.0290758293
aF-3.11001225e-14
aF-3.11001225e-14
aF-3.11001225e-14
aF6.72284441e-05
aF-0.00654290942
aF-0.0519999415
aF-0.0492585339
aF0.00263482332
aF0.00263482332
aF-3.11001225e-14
aF-3.11001225e-14
aF-3.11001225e-14
aF0.00547841098
aF0.0633186251
aF0.113854349
aF0.164020717
aF-0.0316763073
aF-0.0316763073
aF-3.11001225e-14
aF-3.11001225e-14
aF-3.11001225e-14
aF-0.0931160823
aF-0.0779912695
aF0.178089961
aF0.0898503363
aF0.0302706994
aF0.0302706994
aF-3.11001225e-14
aF-3.11001225e-14
aF-3.11001225e-14
aF0.0510209091
aF0.0024923184
aF0.105468616
aF0.0894885361
aF0.140519425
aF0.140519425
aF-3.11001225e-14
aF-3.11001225e-14
aF-3.11001225e-14
aF0.00909028761
aF0.0413044058
aF-0.0363098644
aF-0.0457831211
aF-0.0607013516
aF-0.0607013516
aF-3.11001225e-14
aF-3.11001225e-14
aF-3.11001225e-14
aF-0.00620271591
aF-0.00501302816
aF-0.0550724268
aF-0.0494470447
aF-0.149296433
aF-0.149296433
aF-3.11001225e-14
aF-3.11001225e-14
aF-3.11001225e-14
aF0.0759713575
aF-0.0574988127
aF0.172116995
aF0.121003829
aF-0.0319327898
aF-0.0319327898
aF-3.11001225e-14
aF-3.11001225e-14
aF-3.11001225e-14
aF-0.0241784696
aF0.141459137
aF-0.156428799
aF-0.0956674293
aF0.0437413342
aF0.0437413342
aF-3.11001225e-14
aF-3.11001225e-14
aF-3.11001225e-14
aF0.0573399588
aF-0.0310491472
aF-0.0962850824
aF-0.0455713831
aF-0.0871875957
aF-0.0871875957
aF-3.11001225e-14
aF-3.11001225e-14
aF-3.11001225e-14
aF-0.109132729
aF0.229984432
aF0.201213822
aF0.140851945
aF0.0753790364
aF0.0753790364
aF-3.11001225e-14
aF-3.11001225e-14
aF-3.11001225e-14
aF-0.0518719926
aF-0.204482049
aF0.214026764
aF0.213293687
aF-0.0367144644
aF-0.0367144644
aF-3.11001225e-14
aF-3.11001225e-14
aF-3.11001225e-14
aF0.18434298
aF0.212159485
aF0.0484946333
aF0.0579141602
aF0.0448644832
aF0.0448644832
aF-3.11001225e-14
aF-3.11001225e-14
aF-3.11001225e-14
aF0.0349001773
aF0.0286904387
aF-0.135506347
aF-0.123557284
aF-0.0305837393
aF-0.0305837393
aF-3.11001225e-14
aF-3.11001225e-14
aF-3.11001225e-14
aF-0.113774352
aF0.0172287244
aF0.0218630973
aF0.00122759957
aF0.0760303214
aF0.0760303214
aF-3.11001225e-14
aF-3.11001225e-14
aF-3.11001225e-14
aF-0.0692894682
aF0.0446290635
aF-0.117083319
aF-0.0820389763
aF-0.00263748784
aF-0.00263748784
aF-3.11001225e-14
aF-3.11001225e-14
aF-3.11001225e-14
aF0.156077921
aF-0.262037873
aF-0.119993396
aF-0.0937386006
aF0.0952556059
aF0.0952556059
aF-3.11001225e-14
aF-3.11001225e-14
aF-3.11001225e-14
aF-0.0733285919
aF0.051766634
aF0.13892439
aF0.117157973
aF-0.00684849313
aF-0.00684849313
aF-3.11001225e-14
aF-3.11001225e-14
aF-3.11001225e-14
aF0.0401367508
aF0.219238743
aF0.151749
aF0.112216197
aF-0.0321729816
aF-0.0321729816
aF-3.11001225e-14
aF-3.11001225e-14
aF-3.11001225e-14
aF-0.0458687879
aF0.0178255811
aF0.115907378
aF0.151554748
aF0.0129363323
aF0.0129363323
aF-3.11001225e-14
aF-3.11001225e-14
aF-3.11001225e-14
aF0.0883761421
aF0.0604047179
aF-0.137064651
aF-0.144630924
aF0.159907892
aF0.159907892
aF-3.11001225e-14
aF-3.11001225e-14
aF-3.11001225e-14
aF-0.0532071479
aF-0.0686621815
aF0.0396231562
aF0.0454428531
aF-0.172327623
aF-0.172327623
aF-3.11001225e-14
aF-3.11001225e-14
aF-3.11001225e-14
aF0.0642963871
aF0.0440284088
aF0.0351306796
aF0.00122987723
aF0.0530800745
aF0.0530800745
aF-3.11001225e-14
aF-3.11001225e-14
aF-3.11001225e-14
aF0.0303915851
aF-0.0953557193
aF-0.0422230251
aF-0.0474507622
aF0.0413574018
aF0.0413574018
aF-3.11001225e-14
aF-3.11001225e-14
aF-3.11001225e-14
aF0.028036816
aF0.144082725
aF-0.0526920892
aF-0.0479904898
aF0.0694476962
aF0.0694476962
aF-3.11001225e-14
aF-3.11001225e-14
aF-3.11001225e-14
aF0.0122144585
aF-0.0605794899
aF0.117349036
aF0.138360173
aF-0.011866725
aF-0.011866725
aF-3.11001225e-14
aF-3.11001225e-14
aF-3.11001225e-14
aF-0.0170460958
aF0.0654493123
aF-0.00804476906
aF-0.028529752
aF-0.0453417636
aF-0.0453417636
aF-3.11001225e-14
aF-3.11001225e-14
aF-3.11001225e-14
aF0.0826062858
aF-0.167038277
aF0.00120323116
aF0.0023657803
aF0.0911219791
aF0.0911219791
aF-3.11001225e-14
aF-3.11001225e-14
aF-3.11001225e-14
aF-0.0336177237
aF0.0279364977
aF-0.103181928
aF-0.0519133583
aF-0.0132906754
aF-0.0132906754
aF-3.11001225e-14
aF-3.11001225e-14
aF-3.11001225e-14
aF0.0990240276
aF0.0419471487
aF-0.0182448216
aF-0.0308875181
aF-0.0354093164
aF-0.0354093164
aF-3.11001225e-14
aF-3.11001225e-14
aF-3.11001225e-14
aF-0.187220037
aF0.0579470396
aF0.0810159668
aF0.0412275083
aF-0.0816294774
aF-0.0816294774
aF-3.11001225e-14
aF-3.11001225e-14
aF-3.11001225e-14
aF-0.0939163938
aF-0.109567985
aF-0.0965281203
aF-0.0100200856
aF-0.0328509845
aF-0.0328509845
aF-3.11001225e-14
aF-3.11001225e-14
aF-3.11001225e-14
aF0.0768530443
aF0.00996280834
aF-0.00192874309
aF0.0675107464
aF-0.11007797
aF-0.11007797
aF-3.11001225e-14
aF-3.11001225e-14
aF-3.11001225e-14
aF-0.0769133121
aF-0.0724097043
aF0.0850253776
aF0.0705216378
aF0.00462058932
aF0.00462058932
aF-3.11001225e-14
aF-3.11001225e-14
aF-3.11001225e-14
aF0.0547691658
aF0.132807359
aF-0.0257761013
aF-0.167219773
aF0.0991008207
aF0.0991008207
aF-3.11001225e-14
aF-3.11001225e-14
aF-3.11001225e-14
aF0.074550204
aF-0.0809316635
aF0.112484053
aF0.116336778
aF-0.0170151256
aF-0.0170151256
aF-3.11001225e-14
aF-3.11001225e-14
aF-3.11001225e-14
aF-0.0675341785
aF0.117174506
aF-0.211216599
aF-0.147769362
aF0.0717104599
aF0.0717104599
aF-3.11001225e-14
aF-3.11001225e-14
aF-3.11001225e-14
aF-0.0299175903
aF-0.0565211065
aF0.125411689
aF0.043685928
aF-0.0185338799
aF-0.0185338799
aF-3.11001225e-14
aF-3.11001225e-14
aF-3.11001225e-14
aF0.0229014717
aF0.0738750696
aF0.173777595
aF0.188203275
aF-0.0361614078
aF-0.0361614078
aF-3.11001225e-14
aF-3.11001225e-14
aF-3.11001225e-14
aF0.00775473379
aF0.297241271
aF0.271054357
aF0.325443149
aF-0.00377457915
aF-0.00377457915
aF-3.11001225e-14
aF-3.11001225e-14
aF-3.11001225e-14
aF0.0497921407
aF-0.213440359
aF-0.168040991
aF-0.145280972
aF0.0841936767
aF0.0841936767
aF-3.11001225e-14
aF-3.11001225e-14
aF-3.11001225e-14
aF0.105868407
aF-0.124900341
aF-0.0807075799
aF-0.105080575
aF0.00618572487
aF0.00618572487
aF-3.11001225e-14
aF-3.11001225e-14
aF-3.11001225e-14
aF-0.109818801
aF0.0946959406
aF0.126572415
aF0.0737967044
aF-0.0330081359
aF-0.0330081359
aF-3.11001225e-14
aF-3.11001225e-14
aF-3.11001225e-14
aF-0.162954301
aF0.0125895925
aF0.00610796409
aF0.0471975021
aF0.0640497133
aF0.0640497133
aF-3.11001225e-14
aF-3.11001225e-14
aF-3.11001225e-14
aF0.0212419089
aF0.0462153777
aF-0.0782040879
aF-0.0776993036
aF-0.0111522637
aF-0.0111522637
aF-3.11001225e-14
aF-3.11001225e-14
aF-3.11001225e-14
aF0.0533427261
aF-0.185122296
aF0.157945201
aF0.182621658
aF-0.0468514711
aF-0.0468514711
aF-3.11001225e-14
aF-3.11001225e-14
aF-3.11001225e-14
aF0.141966224
aF0.14070642
aF-0.0322524905
aF-0.0985231772
aF0.047550641
aF0.047550641
aF-3.11001225e-14
aF-3.11001225e-14
aF-3.11001225e-14
aF0.0710285753
aF-0.0527780764
aF-0.174521729
aF-0.154603019
aF-0.074830465
aF-0.074830465
aF-3.11001225e-14
aF-3.11001225e-14
aF-3.11001225e-14
aF0.165670395
aF-0.190010548
aF-0.0188593995
aF0.0414172411
aF0.0746374726
aF0.0746374726
aF-3.11001225e-14
aF-3.11001225e-14
aF-3.11001225e-14
aF-0.0841080993
aF-0.0744733885
aF0.151872531
aF0.12762183
aF-0.0435852781
aF-0.0435852781
aF-3.11001225e-14
aF-3.11001225e-14
aF-3.11001225e-14
aF-0.138201877
aF0.331651032
aF0.0558978245
aF-4.70214982e-05
aF0.0581673384
aF0.0581673384
aF-3.11001225e-14
aF-3.11001225e-14
aF-3.11001225e-14
aF0.0185908396
aF-0.0849012509
aF-0.00960448012
aF0.0854443163
aF0.0309378393
aF0.0309378393
aF-3.11001225e-14
aF-3.11001225e-14
aF-3.11001225e-14
aF0.0324304625
aF-0.144556671
aF-0.0770053491
aF-0.0684736073
aF-0.0259965565
aF-0.0259965565
aF-3.11001225e-14
aF-3.11001225e-14
aF-3.11001225e-14
aF-0.00735917687
aF-0.0837196484
aF0.201440617
aF0.131703243
aF-0.0712219477
aF-0.0712219477
aF-3.11001225e-14
aF-3.11001225e-14
aF-3.11001225e-14
aF-0.082869783
aF0.327566653
aF-0.15403831
aF-0.187881425
aF0.0270730481
aF0.0270730481
aF-3.11001225e-14
aF-3.11001225e-14
aF-3.11001225e-14
aF0.0300631803
aF0.0646689162
aF0.0638346896
aF0.0604284592
aF-0.0381200798
aF-0.0381200798
aF-3.11001225e-14
aF-3.11001225e-14
aF-3.11001225e-14
aF-0.0646392331
aF-0.165045768
aF-0.0599323958
aF-0.101082578
aF0.0139707047
aF0.0139707047
aF-3.11001225e-14
aF-3.11001225e-14
aF-3.11001225e-14
aF0.0662950873
aF-0.0635882095
aF0.0545303449
aF0.0357918926
aF-0.0059591746
aF-0.0059591746
aF-3.11001225e-14
aF-3.11001225e-14
aF-3.11001225e-14
aF-0.0709265023
aF0.124757469
aF-0.0976402238
aF-0.0343454145
aF-0.00909903087
aF-0.00909903087
aF-3.11001225e-14
aF-3.11001225e-14
aF-3.11001225e-14
aF0.108916394
aF0.271929383
aF-0.0918860361
aF-0.0973305032
aF0.107184775
aF0.107184775
aF-3.11001225e-14
aF-3.11001225e-14
aF-3.11001225e-14
aF0.0538250245
aF-0.0815449357
aF0.166439772
aF0.0544836707
aF0.0741476119
aF0.0741476119
aF-3.11001225e-14
aF-3.11001225e-14
aF-3.11001225e-14
aF-0.0448720343
aF-0.314476073
aF-0.0288109388
aF0.133281574
aF-0.14396815
aF-0.14396815
aF-3.11001225e-14
aF-3.11001225e-14
aF-3.11001225e-14
aF-0.157076925
aF0.0848840997
aF-0.0849503577
aF-0.129642308
aF-0.076571703
aF-0.076571703
aF-3.11001225e-14
aF-3.11001225e-14
aF-3.11001225e-14
aF-0.117936596
aF0.153159782
aF0.0211941916
aF-0.00353302411
aF0.0842943713
aF0.0842943713
aF-3.11001225e-14
aF-3.11001225e-14
aF-3.11001225e-14
aF-0.0185925141
aF-0.0438513272
aF0.0678465962
aF0.0515419059
aF0.143169418
aF0.143169418
aF-3.11001225e-14
aF-3.11001225e-14
aF-3.11001225e-14
aF0.13945359
aF-0.0598098598
aF-0.0559950396
aF-0.0186876394
aF-0.139811501
aF-0.139811501
aF-3.11001225e-14
aF-3.11001225e-14
aF-3.11001225e-14
aF-0.00292446441
aF0.0669677705
aF0.101604454
aF0.105328821
aF-0.0876522809
aF-0.0876522809
aF-3.11001225e-14
aF-3.11001225e-14
aF-3.11001225e-14
aF-0.0262310989
aF0.0320518538
aF0.0640405416
aF0.0870993733
aF-0.00519322837
aF-0.00519322837
aF-3.11001225e-14
aF-3.11001225e-14
aF-3.11001225e-14
aF-0.0255925059
aF0.0303257406
aF0.0760106742
aF0.107307687
aF0.0206869412
aF0.0206869412
aF-3.11001225e-14
aF-3.11001225e-14
aF-3.11001225e-14
aF0.0915009826
aF-0.06225162
aF0.0450258069
aF-0.0034511087
aF0.0257005021
aF0.0257005021
aF-3.11001225e-14
aF-3.11001225e-14
aF-3.11001225e-14
aF-0.0396774746
aF0.053470552
aF0.0153797111
aF0.00950078014
aF-0.0411942825
aF-0.0411942825
aF-3.11001225e-14
aF-3.11001225e-14
aF-3.11001225e-14
aF0.0297158975
aF0.0669162869
aF0.141629204
aF0.187781289
aF0.00433192449
aF0.00433192449
aF-3.11001225e-14
aF-3.11001225e-14
aF-3.11001225e-14
aF-0.0823812559
aF-0.0169726312
aF0.049020797
aF0.0462941267
aF0.0130728958
aF0.0130728958
aF-3.11001225e-14
aF-3.11001225e-14
aF-3.11001225e-14
aF0.0677029788
aF-0.0319661163
aF0.0672251135
aF0.0671692193
aF-0.0302638523
aF-0.0302638523
aF-3.11001225e-14
aF-3.11001225e-14
aF-3.11001225e-14
aF-0.0150377117
aF-0.00358845014
aF0.119535968
aF0.0761663169
aF0.0128588509
aF0.0128588509
aF-3.11001225e-14
aF-3.11001225e-14
aF-3.11001225e-14
aF0.171076462
aF0.0403993577
aF0.199529052
aF0.184489533
aF-0.0133639518
aF-0.0133639518
aF-3.11001225e-14
aF-3.11001225e-14
aF-3.11001225e-14
aF0.00504204677
aF-0.139809221
aF-0.0975652188
aF-0.114671864
aF0.0452198796
aF0.0452198796
aF-3.11001225e-14
aF-3.11001225e-14
aF-3.11001225e-14
aF-0.0837905779
aF0.0479877628
aF-0.00899395626
aF-0.0382593311
aF-0.0237969533
aF-0.0237969533
aF-3.11001225e-14
aF-3.11001225e-14
aF-3.11001225e-14
aF-0.0779389068
aF0.0658111051
aF-0.0785807744
aF-0.0171692334
aF0.00633013202
aF0.00633013202
aF-3.11001225e-14
aF-3.11001225e-14
aF-3.11001225e-14
aF0.0242867768
aF-0.107240468
aF-0.116842709
aF-0.123310864
aF-0.0211217366
aF-0.0211217366
aF-3.11001225e-14
aF-3.11001225e-14
aF-3.11001225e-14
aF0.00942148548
aF-0.254184783
aF0.0500457622
aF0.0393931307
aF-0.00536371069
aF-0.00536371069
aF-3.11001225e-14
aF-3.11001225e-14
aF-3.11001225e-14
aF0.0558382533
aF0.045437187
aF0.0262312144
aF0.0896999314
aF-0.107295342
aF-0.107295342
aF-3.11001225e-14
aF-3.11001225e-14
aF-3.11001225e-14
aF-0.128754094
aF0.276780486
aF0.00135818112
aF-0.0449897498
aF0.0945732668
aF0.0945732668
aF-3.11001225e-14
aF-3.11001225e-14
aF-3.11001225e-14
aF-0.00309307571
aF-0.175067171
aF-0.0265131537
aF-0.00830657408
aF0.0466516241
aF0.0466516241
aF-3.11001225e-14
aF-3.11001225e-14
aF-3.11001225e-14
aF0.19915159
aF0.0129204141
aF-0.028109476
aF0.0875445306
aF0.0338798761
aF0.0338798761
aF-3.11001225e-14
aF-3.11001225e-14
aF-3.11001225e-14
aF-0.0864857137
aF0.145583421
aF-0.00303286221
aF-0.0795882866
aF0.139560446
aF0.139560446
aF-3.11001225e-14
aF-3.11001225e-14
aF-3.11001225e-14
aF-0.148780406
aF-0.0226442143
aF0.0184479393
aF-0.0388572253
aF-0.259299576
aF-0.259299576
aF-3.11001225e-14
aF-3.11001225e-14
aF-3.11001225e-14
aF0.0844589397
aF0.297205299
aF-0.169854045
aF-0.0361179188
aF0.217962667
aF0.217962667
aF-3.11001225e-14
aF-3.11001225e-14
aF-3.11001225e-14
aF-0.0918237194
aF-0.164500207
aF-0.00417424785
aF-0.0810146108
aF0.00244330149
aF0.00244330149
aF-3.11001225e-14
aF-3.11001225e-14
aF-3.11001225e-14
aF-0.107496507
aF-0.0633303821
aF-0.0265103243
aF-0.00424518622
aF-0.142348498
aF-0.142348498
aF-3.11001225e-14
aF-3.11001225e-14
aF-3.11001225e-14
aF0.0756538212
aF0.109298676
aF0.161331132
aF0.0821701065
aF-0.117264986
aF-0.117264986
aF-3.11001225e-14
aF-3.11001225e-14
aF-3.11001225e-14
aF-3.086258973083276
a.