(lp0
F0.0
aF0.0
aF0.0
aF0.0
aF-0.194676042
aF0.480431229
aF-0.796005785
aF-0.726296365
aF-0.603092134
aF0.0
aF0.0
aF0.0
aF0.0
aF0.974969268
aF0.00243988936
aF-0.259610534
aF0.0417699777
aF0.280867726
aF0.0
aF0.0
aF0.0
aF0.0
aF-0.265957832
aF0.451899409
aF0.227741212
aF-0.30764848
aF-0.208022118
aF0.0
aF0.0
aF0.0
aF0.0
aF-0.507776141
aF0.44478631
aF0.505629361
aF-0.0634640381
aF0.275777757
aF0.0
aF0.0
aF0.0
aF0.0
aF0.245696679
aF-0.0307604242
aF-0.490968108
aF-0.172203377
aF-0.263663471
aF0.0
aF0.0
aF0.0
aF0.0
aF0.133036315
aF0.0976664498
aF0.0129698142
aF-0.505213618
aF0.71004796
aF0.0
aF0.0
aF0.0
aF0.0
aF-0.524171114
aF0.423251659
aF-0.372144133
aF-0.319096267
aF0.125487059
aF0.0
aF0.0
aF0.0
aF0.0
aF0.309784621
aF0.103371508
aF0.300630867
aF0.120986678
aF-0.179597646
aF0.0
aF0.0
aF0.0
aF0.0
aF-0.124266051
aF-0.0307470392
aF-0.435698718
aF-0.465206087
aF-0.16224815
aF0.0
aF0.0
aF0.0
aF0.0
aF-0.116604991
aF-0.0584683344
aF0.42954725
aF0.143405542
aF-0.261536241
aF0.0
aF0.0
aF0.0
aF0.0
aF0.0414406247
aF0.0433810651
aF0.10140989
aF0.161162883
aF-0.273640662
aF0.0
aF0.0
aF0.0
aF0.0
aF0.488996089
aF0.00415698485
aF-0.224525243
aF0.136455387
aF-0.12889424
aF0.0
aF0.0
aF0.0
aF0.0
aF0.0313358307
aF-0.341296971
aF0.172110021
aF0.0673693493
aF-0.416528404
aF0.0
aF0.0
aF0.0
aF0.0
aF-0.668586433
aF-0.112058491
aF0.0230345372
aF0.543634474
aF0.172848865
aF0.0
aF0.0
aF0.0
aF0.0
aF0.107084446
aF-0.0414841175
aF-0.488988221
aF-0.0340122618
aF-0.29839462
aF0.0
aF0.0
aF0.0
aF0.0
aF0.469542295
aF0.2987248
aF-0.0664751083
aF0.287625074
aF0.307581633
aF0.0
aF0.0
aF0.0
aF0.0
aF-0.319178641
aF-0.287468344
aF-0.205103487
aF0.330224484
aF-0.703148544
aF0.0
aF0.0
aF0.0
aF0.0
aF-0.458087057
aF-0.0133940941
aF-0.168286428
aF0.388121784
aF0.50594908
aF0.0
aF0.0
aF0.0
aF0.0
aF-0.0897057652
aF0.24380289
aF0.328357279
aF0.172140911
aF0.250833392
aF0.0
aF0.0
aF0.0
aF0.0
aF0.0960195288
aF0.188432708
aF-0.110767588
aF-0.469829917
aF0.295653552
aF0.0
aF0.0
aF0.0
aF0.0
aF0.145301908
aF-0.0352001563
aF-0.0986245126
aF0.269555777
aF-0.652390897
aF0.0
aF0.0
aF0.0
aF0.0
aF0.975888789
aF0.0712042078
aF-0.811676502
aF-0.749777317
aF-0.363993883
aF0.0
aF0.0
aF0.0
aF0.0
aF0.797870457
aF0.288058847
aF-0.101046331
aF-0.566045821
aF-0.112196319
aF0.0
aF0.0
aF0.0
aF0.0
aF0.268410742
aF0.21185872
aF-0.0607370622
aF0.161473393
aF0.374141186
aF0.0
aF0.0
aF0.0
aF0.0
aF-0.428723067
aF0.0656680912
aF-0.0348415338
aF-0.655165255
aF-0.447380364
aF0.0
aF0.0
aF0.0
aF0.0
aF1.59916925
aF-0.192571402
aF0.213160932
aF0.490414679
aF0.863201797
aF0.0
aF0.0
aF0.0
aF0.0
aF0.0403375775
aF0.268519789
aF-0.0215861183
aF0.292483568
aF-0.457464069
aF0.0
aF0.0
aF0.0
aF0.0
aF0.326479077
aF-0.529617608
aF-0.250550777
aF-0.496362478
aF-0.645172298
aF0.0
aF0.0
aF0.0
aF0.0
aF-0.409528315
aF0.59292829
aF-0.206942141
aF-0.218088359
aF-0.0676237121
aF0.0
aF0.0
aF0.0
aF0.0
aF0.510856271
aF0.523951709
aF-0.404163361
aF-0.100064017
aF0.285730064
aF0.0
aF0.0
aF0.0
aF0.0
aF0.19826746
aF0.442894816
aF-0.465384185
aF-1.10560417
aF0.042729862
aF0.0
aF0.0
aF0.0
aF0.0
aF-0.432134509
aF-0.114818305
aF-0.528090298
aF0.23775436
aF0.00536211766
aF0.0
aF0.0
aF0.0
aF0.0
aF-0.715432763
aF0.399719507
aF-0.471046031
aF-0.279007584
aF0.135473832
aF0.0
aF0.0
aF0.0
aF0.0
aF-0.114801787
aF0.150804222
aF0.366267711
aF0.20373112
aF-0.359992802
aF0.0
aF0.0
aF0.0
aF0.0
aF-0.423541754
aF-0.22889863
aF-0.106699169
aF0.276194483
aF-0.0997429565
aF0.0
aF0.0
aF0.0
aF0.0
aF0.185816467
aF0.10276635
aF0.00487628579
aF0.0533045307
aF0.18832992
aF0.0
aF0.0
aF0.0
aF0.0
aF-0.409242868
aF0.0468480177
aF0.032841485
aF0.158399731
aF-0.452724993
aF0.0
aF0.0
aF0.0
aF0.0
aF0.0344169363
aF0.0423573181
aF-0.12669456
aF0.0275348257
aF-0.0702757686
aF0.0
aF0.0
aF0.0
aF0.0
aF0.0695292875
aF-0.0534544475
aF0.278184384
aF0.0899580792
aF-0.174603552
aF0.0
aF0.0
aF0.0
aF0.0
aF-0.230667889
aF0.105554223
aF0.0355252028
aF-0.232213035
aF0.096848309
aF0.0
aF0.0
aF0.0
aF0.0
aF0.251724333
aF-0.0508396588
aF-0.107267074
aF-0.0620362051
aF-0.152595878
aF0.0
aF0.0
aF0.0
aF0.0
aF0.521066844
aF0.275077254
aF0.261547714
aF0.314086944
aF0.314500213
aF0.0
aF0.0
aF0.0
aF0.0
aF-0.0765405074
aF0.107146814
aF0.561025262
aF-0.213463053
aF0.415442228
aF0.0
aF0.0
aF0.0
aF0.0
aF-0.0538925491
aF-0.564397395
aF-0.0307024177
aF0.0215047654
aF-0.164597467
aF0.0
aF0.0
aF0.0
aF0.0
aF0.329225868
aF0.138754055
aF0.363013238
aF0.037174236
aF0.163098231
aF0.0
aF0.0
aF0.0
aF0.0
aF0.604185283
aF0.227657273
aF1.0761596
aF-0.309329271
aF0.14403449
aF0.0
aF0.0
aF0.0
aF0.0
aF-0.37220183
aF-0.598483384
aF-0.159871563
aF-0.266368717
aF-0.689951539
aF0.0
aF0.0
aF0.0
aF0.0
aF-0.119969293
aF0.419744015
aF0.0202287119
aF0.476600438
aF0.0830905288
aF0.0
aF0.0
aF0.0
aF0.0
aF0.474320918
aF0.201029524
aF0.627446592
aF-0.404568017
aF-0.291360438
aF0.0
aF0.0
aF0.0
aF0.0
aF0.36556375
aF0.225903168
aF0.15272522
aF0.210688367
aF-0.5816589
aF0.0
aF0.0
aF0.0
aF0.0
aF-0.0175084993
aF0.365334332
aF-0.0832403377
aF0.454592198
aF0.150113896
aF0.0
aF0.0
aF0.0
aF0.0
aF-0.8441661
aF0.248257548
aF-0.244083136
aF-0.112428837
aF-0.327219218
aF0.0
aF0.0
aF0.0
aF0.0
aF0.232900307
aF0.322374761
aF0.707817137
aF0.382074773
aF-0.700841844
aF0.0
aF0.0
aF0.0
aF0.0
aF-0.00482248748
aF-0.465432614
aF-0.462473214
aF-0.343948632
aF-0.726338327
aF0.0
aF0.0
aF0.0
aF0.0
aF-0.0699250028
aF0.308849633
aF0.0639272928
aF0.212802261
aF0.0404298045
aF0.0
aF0.0
aF0.0
aF0.0
aF-0.0298245512
aF-0.439157456
aF0.364287704
aF0.0674086735
aF-0.418657213
aF0.0
aF0.0
aF0.0
aF0.0
aF0.272841692
aF0.410195768
aF-0.642983913
aF-1.0160327
aF0.682146311
aF0.0
aF0.0
aF0.0
aF0.0
aF0.479737043
aF0.0407971181
aF0.26726231
aF0.472203463
aF-0.195530608
aF0.0
aF0.0
aF0.0
aF0.0
aF-1.04684341
aF0.186463639
aF-0.34502998
aF-0.411045194
aF-1.09435523
aF0.0
aF0.0
aF0.0
aF0.0
aF0.136086896
aF0.251016021
aF0.263541162
aF0.308773696
aF0.50066781
aF0.0
aF0.0
aF0.0
aF0.0
aF-0.330600947
aF-0.0888845995
aF-0.11360231
aF0.351858616
aF-0.293501914
aF0.0
aF0.0
aF0.0
aF0.0
aF0.283297569
aF0.190779224
aF-0.0428559072
aF0.176903859
aF0.119505368
aF0.0
aF0.0
aF0.0
aF0.0
aF0.124723151
aF0.0855997205
aF-0.140323803
aF0.260156691
aF-0.26147449
aF0.0
aF0.0
aF0.0
aF0.0
aF-0.157806724
aF0.0367010087
aF-0.243816793
aF-0.227582276
aF-0.209162429
aF0.0
aF0.0
aF0.0
aF0.0
aF0.47811076
aF0.0150883198
aF-0.209560275
aF0.095415622
aF-0.256652594
aF0.0
aF0.0
aF0.0
aF0.0
aF0.275534004
aF0.273953885
aF-0.0871299878
aF-0.178645253
aF-0.0197847486
aF0.0
aF0.0
aF0.0
aF0.0
aF-0.560502827
aF-0.0861552432
aF0.163281381
aF-0.384963483
aF-0.650050998
aF0.0
aF0.0
aF0.0
aF0.0
aF0.162404925
aF-0.0209284462
aF0.129331306
aF0.547471941
aF-0.418097407
aF0.0
aF0.0
aF0.0
aF0.0
aF0.167788923
aF0.227031112
aF0.206197128
aF-0.234225944
aF0.0481818393
aF0.0
aF0.0
aF0.0
aF0.0
aF-0.038437441
aF-0.342439026
aF-0.228418574
aF0.154967114
aF-0.329085112
aF0.0
aF0.0
aF0.0
aF0.0
aF0.0122171845
aF-0.308959246
aF0.420137286
aF0.434457719
aF-0.117446505
aF0.0
aF0.0
aF0.0
aF0.0
aF0.193158418
aF-0.327159017
aF0.250213981
aF-0.13656272
aF-0.0516177788
aF0.0
aF0.0
aF0.0
aF0.0
aF-0.356232285
aF-0.443188787
aF-0.234833449
aF0.038490057
aF-0.605812252
aF0.0
aF0.0
aF0.0
aF0.0
aF0.208201438
aF0.48994872
aF0.242189914
aF0.49878782
aF0.215769097
aF0.0
aF0.0
aF0.0
aF0.0
aF0.186563954
aF-0.50105381
aF-0.04844198
aF-0.352339357
aF-0.220745936
aF0.0
aF0.0
aF0.0
aF0.0
aF0.740127325
aF-0.0119439606
aF-0.0737696141
aF0.169127628
aF0.0722215772
aF0.0
aF0.0
aF0.0
aF0.0
aF-0.462559074
aF0.411698163
aF-0.105736077
aF0.495451212
aF0.313290328
aF0.0
aF0.0
aF0.0
aF0.0
aF-0.678321421
aF0.279045999
aF-0.0891116634
aF0.0217870735
aF-0.223498911
aF0.0
aF0.0
aF0.0
aF0.0
aF0.114899509
aF-0.0607681647
aF0.160288602
aF0.280937552
aF0.122129254
aF0.0
aF0.0
aF0.0
aF0.0
aF-0.198445529
aF0.365278214
aF-0.463194579
aF-0.199860886
aF-0.0702560917
aF0.0
aF0.0
aF0.0
aF0.0
aF-0.677580774
aF0.316225737
aF0.375546724
aF0.248343855
aF-0.313941956
aF0.0
aF0.0
aF0.0
aF0.0
aF-0.227303296
aF-0.358075559
aF-0.164669797
aF0.293666244
aF-0.0747844726
aF0.0
aF0.0
aF0.0
aF0.0
aF0.133101225
aF0.534804404
aF-0.25151661
aF0.248360306
aF0.310621649
aF0.0
aF0.0
aF0.0
aF0.0
aF-0.242427647
aF0.0707430989
aF0.271223456
aF0.199086145
aF-0.69142282
aF0.0
aF0.0
aF0.0
aF0.0
aF-0.767091572
aF0.308863461
aF-0.315892667
aF-0.333379358
aF-1.3046819
aF0.0
aF0.0
aF0.0
aF0.0
aF0.241034001
aF0.106826305
aF0.359762788
aF0.319428116
aF0.122693621
aF0.0
aF0.0
aF0.0
aF0.0
aF-0.109683193
aF0.239659622
aF-0.556619823
aF-0.314362884
aF-0.603655338
aF0.0
aF0.0
aF0.0
aF0.0
aF0.141621783
aF0.231413305
aF0.881969213
aF0.398278385
aF0.473726988
aF0.0
aF0.0
aF0.0
aF0.0
aF0.487684846
aF0.10407684
aF-0.0528521314
aF0.193892837
aF-0.341348559
aF0.0
aF0.0
aF0.0
aF0.0
aF-0.242465943
aF0.262758374
aF-0.443134546
aF-0.19094567
aF-0.352909029
aF0.0
aF0.0
aF0.0
aF0.0
aF-0.102772586
aF0.011931953
aF-0.121907346
aF0.218164101
aF0.335561275
aF0.0
aF0.0
aF0.0
aF0.0
aF0.742850244
aF-0.464749664
aF-0.585029483
aF-0.317011327
aF0.858205736
aF0.0
aF0.0
aF0.0
aF0.0
aF0.349735647
aF0.189455613
aF0.281282187
aF-0.2851125
aF-0.891732395
aF0.0
aF0.0
aF0.0
aF0.0
aF-0.224501789
aF0.150440559
aF-0.144529134
aF0.569089055
aF-0.176812902
aF0.0
aF0.0
aF0.0
aF0.0
aF0.125219926
aF-0.417335004
aF0.0479788519
aF-0.464898825
aF0.0079920385
aF0.0
aF0.0
aF0.0
aF0.0
aF-0.079192847
aF0.0426701531
aF0.126107022
aF0.608563781
aF0.185580254
aF0.0
aF0.0
aF0.0
aF0.0
aF-0.440852135
aF-0.0608015023
aF-0.440761477
aF0.381166518
aF-0.289918721
aF0.0
aF0.0
aF0.0
aF0.0
aF-0.00871554576
aF-0.3598876
aF-0.109572411
aF-0.140597224
aF-0.385710478
aF0.0
aF0.0
aF0.0
aF0.0
aF-0.13848941
aF-0.13291885
aF-0.0146274297
aF0.231938839
aF-0.199139744
aF0.0
aF0.0
aF0.0
aF0.0
aF0.428218931
aF0.60421747
aF0.311356932
aF0.465070665
aF0.300023019
aF0.0
aF0.0
aF0.0
aF0.0
aF0.0579598546
aF-0.460459054
aF-0.198046759
aF-0.19527261
aF-0.00611409312
aF0.0
aF0.0
aF0.0
aF0.0
aF0.0615792535
aF-0.120384745
aF-0.472702503
aF0.181291088
aF0.134937748
aF0.0
aF0.0
aF0.0
aF0.0
aF0.310041159
aF0.59820503
aF0.54604429
aF0.221523881
aF-0.10509748
aF0.0
aF0.0
aF0.0
aF0.0
aF0.210769236
aF-0.356822819
aF0.133415565
aF0.284350842
aF-0.825218201
aF0.0
aF0.0
aF0.0
aF0.0
aF0.0289854128
aF-0.114328407
aF0.0978089422
aF0.237876832
aF0.100725986
aF0.0
aF0.0
aF0.0
aF0.0
aF0.0705430284
aF0.330411583
aF-0.546946526
aF-0.100987174
aF0.395115733
aF0.0
aF0.0
aF0.0
aF0.0
aF-0.0606151894
aF-0.387609035
aF0.104342028
aF0.14133212
aF-0.890036225
aF0.0
aF0.0
aF0.0
aF0.0
aF0.541967869
aF0.036819011
aF0.113977149
aF0.131008014
aF-0.230391487
aF0.0
aF0.0
aF0.0
aF0.0
aF-0.387738287
aF0.406875581
aF-0.532551467
aF0.11552991
aF0.227284849
aF0.0
aF0.0
aF0.0
aF0.0
aF-0.180051312
aF0.0632276386
aF0.00774984062
aF0.236130506
aF-0.372458011
aF0.0
aF0.0
aF0.0
aF0.0
aF0.0934225097
aF0.0798383653
aF0.320328504
aF0.208958879
aF-0.195987761
aF0.0
aF0.0
aF0.0
aF0.0
aF-0.270682365
aF0.0199846048
aF-0.238791823
aF0.0853326097
aF0.313598007
aF0.0
aF0.0
aF0.0
aF0.0
aF0.0606908612
aF0.241163075
aF-0.929057717
aF-0.186233446
aF-0.610811055
aF0.0
aF0.0
aF0.0
aF0.0
aF0.219538391
aF0.255843192
aF0.105855428
aF0.729910076
aF0.247410104
aF0.0
aF0.0
aF0.0
aF0.0
aF0.296726495
aF0.579848468
aF-0.148578793
aF-0.406726331
aF0.157316089
aF0.0
aF0.0
aF0.0
aF0.0
aF-0.023637902
aF-0.0484349132
aF0.19410798
aF-0.425063938
aF-0.309870481
aF0.0
aF0.0
aF0.0
aF0.0
aF0.16291827
aF0.0502913594
aF0.00737718912
aF0.390934229
aF0.00871720817
aF0.0
aF0.0
aF0.0
aF0.0
aF0.260318875
aF-0.324974
aF-0.795901418
aF-0.354128361
aF0.428171188
aF0.0
aF0.0
aF0.0
aF0.0
aF0.363946676
aF-0.184588388
aF-0.0615643449
aF-0.678150833
aF0.0914574638
aF0.0
aF0.0
aF0.0
aF0.0
aF0.374330282
aF0.0494362079
aF0.171699479
aF0.0890461057
aF-0.0493369326
aF0.0
aF0.0
aF0.0
aF0.0
aF0.878657639
aF-0.413471311
aF0.214007005
aF-0.5135113
aF-0.315005124
aF0.0
aF0.0
aF0.0
aF0.0
aF-0.096345827
aF0.0455677025
aF-0.0156602357
aF0.596807182
aF0.118798971
aF0.0
aF0.0
aF0.0
aF0.0
aF0.0871583074
aF0.0264050011
aF0.0262779091
aF0.0227476209
aF-0.455939382
aF0.0
aF0.0
aF0.0
aF0.0
aF0.0865022466
aF-0.212964997
aF0.107749902
aF-0.512391746
aF0.322180301
aF0.0
aF0.0
aF0.0
aF0.0
aF-0.0901194662
aF-0.167087182
aF-0.198186994
aF0.245133415
aF-0.489245564
aF0.0
aF0.0
aF0.0
aF0.0
aF-0.131526053
aF0.618667781
aF-0.0496772639
aF0.585066915
aF0.314987242
aF0.0
aF0.0
aF0.0
aF0.0
aF-0.115114726
aF-0.204676822
aF-0.374090463
aF-0.545505881
aF-0.457652152
aF0.0
aF0.0
aF0.0
aF0.0
aF0.224692404
aF0.597154438
aF-0.282869577
aF0.13069734
aF0.389352769
aF0.0
aF0.0
aF0.0
aF0.0
aF-0.30512473
aF0.606746256
aF0.212320596
aF0.369200259
aF0.234164119
aF0.0
aF0.0
aF0.0
aF0.0
aF-0.0257028658
aF-0.450112581
aF0.204019323
aF0.277215123
aF-1.2069
aF0.0
aF0.0
aF0.0
aF0.0
aF0.655635536
aF0.458098888
aF0.0816788301
aF-0.0635223687
aF-0.107457668
aF0.0
aF0.0
aF0.0
aF0.0
aF-0.606216252
aF-0.00315726595
aF-0.124855854
aF0.303337127
aF-0.509366035
aF0.0
aF0.0
aF0.0
aF0.0
aF-0.00370955491
aF-0.366097331
aF0.822193384
aF0.24397099
aF-0.91002655
aF0.0
aF0.0
aF0.0
aF0.0
aF0.101973742
aF0.0540918931
aF-0.0550138876
aF0.116900027
aF-0.0386253558
aF0.0
aF0.0
aF0.0
aF0.0
aF-0.406853914
aF0.0734406412
aF-0.00255302619
aF0.284155339
aF-0.405288815
aF0.0
aF0.0
aF0.0
aF0.0
aF0.243459851
aF-0.0300776549
aF0.352021843
aF-0.0399978198
aF-0.0339646302
aF0.0
aF0.0
aF0.0
aF0.0
aF-0.359352261
aF-0.00810428709
aF0.0774949938
aF0.0406816825
aF-0.247129485
aF0.0
aF0.0
aF0.0
aF0.0
aF-0.353016168
aF-0.0348510444
aF-0.273463428
aF-0.0406879298
aF-0.0711247474
aF0.0
aF0.0
aF0.0
aF0.0
aF-0.13900955
aF-0.0438984893
aF-0.0593554638
aF-0.13269335
aF-0.460282445
aF0.0
aF0.0
aF0.0
aF0.0
aF1.12661099
aF-0.0959691331
aF0.745448947
aF-0.0585216768
aF0.387222826
aF0.0
aF0.0
aF0.0
aF0.0
aF0.471354842
aF0.616395652
aF0.181710228
aF-0.440525979
aF0.230424196
aF0.0
aF0.0
aF0.0
aF0.0
aF0.418659061
aF-0.080306299
aF-0.695244312
aF-0.359357238
aF-0.251360953
aF0.0
aF0.0
aF0.0
aF0.0
aF0.403883696
aF0.368685544
aF-0.319223642
aF-0.279675126
aF-0.369778901
aF0.0
aF0.0
aF0.0
aF0.0
aF0.121900037
aF0.0331881344
aF0.414787859
aF-0.299500585
aF-0.166016027
aF0.0
aF0.0
aF0.0
aF0.0
aF0.53424263
aF-0.177024141
aF-0.0542779081
aF-0.585590005
aF0.29718399
aF0.0
aF0.0
aF0.0
aF0.0
aF0.1328208
aF0.149325505
aF-0.104148805
aF0.0698679462
aF0.25042364
aF0.0
aF0.0
aF0.0
aF0.0
aF-0.284699738
aF-0.0334571563
aF0.0545139425
aF-0.510580897
aF0.127853066
aF0.0
aF0.0
aF0.0
aF0.0
aF0.531267464
aF-0.543084741
aF0.0312603861
aF-0.354863912
aF0.468968242
aF0.0
aF0.0
aF0.0
aF0.0
aF-0.194801047
aF0.0222037733
aF-0.450656533
aF-0.0189874973
aF-0.242111191
aF0.0
aF0.0
aF0.0
aF0.0
aF0.257826477
aF-0.17210339
aF-0.431565672
aF-0.355307639
aF0.299922973
aF0.0
aF0.0
aF0.0
aF0.0
aF-0.223152146
aF-0.556485951
aF-0.128379866
aF-0.364593595
aF-0.262601942
aF0.0
aF0.0
aF0.0
aF0.0
aF0.485386223
aF0.732053757
aF0.274848521
aF-0.159826994
aF0.101675801
aF0.0
aF0.0
aF0.0
aF0.0
aF-0.365148544
aF-0.205602705
aF-0.612549365
aF-0.365510792
aF-0.605789065
aF0.0
aF0.0
aF0.0
aF0.0
aF0.077352576
aF0.654983819
aF-0.31381008
aF0.262432188
aF0.259276479
aF0.0
aF0.0
aF0.0
aF0.0
aF-0.273890138
aF0.645262957
aF0.0861451328
aF-0.0955458879
aF-0.176921204
aF0.0
aF0.0
aF0.0
aF0.0
aF-0.105916962
aF0.768693566
aF0.118258446
aF-0.121848926
aF0.370128155
aF0.0
aF0.0
aF0.0
aF0.0
aF0.205939695
aF0.494154215
aF0.0113776214
aF-0.00677890889
aF-0.0480225198
aF0.0
aF0.0
aF0.0
aF0.0
aF-0.635463655
aF0.0520747304
aF-0.383641839
aF0.327547193
aF-1.00214529
aF0.0
aF0.0
aF0.0
aF0.0
aF0.220972866
aF0.662123322
aF0.0494440049
aF-0.111132726
aF0.102451622
aF0.0
aF0.0
aF0.0
aF0.0
aF0.0173325613
aF0.249580145
aF0.174593106
aF0.0151822856
aF-0.395587832
aF0.0
aF0.0
aF0.0
aF0.0
aF-0.465013653
aF0.0833865553
aF-0.169429511
aF0.340856791
aF-0.791996777
aF0.0
aF0.0
aF0.0
aF0.0
aF-0.0100994315
aF-0.0406612642
aF0.0730500817
aF-0.120515741
aF-0.320812404
aF0.0
aF0.0
aF0.0
aF0.0
aF-0.0162305031
aF0.350544989
aF0.713154316
aF0.256427705
aF-0.0967033207
aF0.0
aF0.0
aF0.0
aF0.0
aF0.320280582
aF-0.199356616
aF0.547448158
aF-0.0301035028
aF-0.424226254
aF0.0
aF0.0
aF0.0
aF0.0
aF-0.304538399
aF-0.0632735118
aF-0.0608351938
aF-0.123382941
aF-0.686696053
aF0.0
aF0.0
aF0.0
aF0.0
aF0.5216133
aF-0.068420589
aF0.648038983
aF-0.0252934247
aF0.514296353
aF0.0
aF0.0
aF0.0
aF0.0
aF0.0568145104
aF-0.25340122
aF0.252618611
aF-0.031622462
aF-1.01907921
aF0.0
aF0.0
aF0.0
aF0.0
aF-0.025010705
aF-0.121328659
aF0.569826901
aF-0.0175562445
aF0.23723048
aF0.0
aF0.0
aF0.0
aF0.0
aF1.10590494
aF0.416520745
aF-0.0841503367
aF-0.218077466
aF-0.351418138
aF0.0
aF0.0
aF0.0
aF0.0
aF0.681310058
aF0.0372252241
aF0.1405956
aF-0.286861956
aF-0.96384263
aF0.0
aF0.0
aF0.0
aF0.0
aF-0.684697509
aF0.000171809079
aF-0.0286141336
aF-0.501823187
aF0.198351488
aF0.0
aF0.0
aF0.0
aF0.0
aF-0.0832652748
aF-0.118593007
aF0.313547403
aF0.00865090173
aF0.419065475
aF0.0
aF0.0
aF0.0
aF0.0
aF0.121617027
aF0.0146059142
aF0.178487957
aF-0.432152033
aF-0.199176148
aF0.0
aF0.0
aF0.0
aF0.0
aF0.739634812
aF-0.458693683
aF0.0313633941
aF-0.214012265
aF0.0515537225
aF0.0
aF0.0
aF0.0
aF0.0
aF-0.355065167
aF-0.0687998086
aF-0.345316052
aF-0.00361386873
aF0.177884892
aF0.0
aF0.0
aF0.0
aF0.0
aF0.277444154
aF-0.151139095
aF0.361227065
aF-0.640985668
aF0.786007762
aF0.0
aF0.0
aF0.0
aF0.0
aF-0.328161776
aF-0.553495526
aF-0.18670994
aF-0.285528481
aF-0.452982873
aF0.0
aF0.0
aF0.0
aF0.0
aF0.19845891
aF0.722789705
aF0.00557924435
aF-0.124196775
aF0.186297163
aF0.0
aF0.0
aF0.0
aF0.0
aF-0.468476593
aF-0.263974428
aF-0.294246137
aF-0.710347474
aF0.0132007962
aF0.0
aF0.0
aF0.0
aF0.0
aF0.0232180599
aF0.00400612317
aF0.451876551
aF-0.193054214
aF0.869090915
aF0.0
aF0.0
aF0.0
aF0.0
aF-0.610559165
aF0.570570111
aF-0.447914869
aF-0.0910411626
aF-0.482429832
aF0.0
aF0.0
aF0.0
aF0.0
aF0.284650236
aF0.762629509
aF-0.4882963
aF-0.109849498
aF0.0920534581
aF0.0
aF0.0
aF0.0
aF0.0
aF-0.369526595
aF-0.189342052
aF-0.639579117
aF-0.0884798244
aF0.0984554961
aF0.0
aF0.0
aF0.0
aF0.0
aF0.489709735
aF0.389631629
aF0.235828996
aF0.119662262
aF0.473827004
aF0.0
aF0.0
aF0.0
aF0.0
aF0.191154689
aF0.551888824
aF-0.559420288
aF-0.245966017
aF-0.1800832
aF0.0
aF0.0
aF0.0
aF0.0
aF-0.274987638
aF0.201338783
aF-0.32507205
aF0.00305317086
aF-0.881143153
aF0.0
aF0.0
aF0.0
aF0.0
aF1.00215948
aF0.254947126
aF0.273528337
aF-0.0972399563
aF0.174606249
aF0.0
aF0.0
aF0.0
aF0.0
aF-0.0286615957
aF0.122058645
aF0.403008312
aF-0.469813764
aF-0.115355536
aF0.0
aF0.0
aF0.0
aF0.0
aF-0.359026253
aF0.190349475
aF0.0379229635
aF0.0968771651
aF-0.209357098
aF0.0
aF0.0
aF0.0
aF0.0
aF-0.00624323403
aF-0.27665171
aF0.0918738618
aF-0.133246198
aF-0.582305729
aF0.0
aF0.0
aF0.0
aF0.0
aF0.0982315466
aF0.154708147
aF0.495030612
aF-0.352324754
aF0.593234062
aF0.0
aF0.0
aF0.0
aF0.0
aF0.629083216
aF-0.128860876
aF0.0204586461
aF-0.377520055
aF0.0177669376
aF0.0
aF0.0
aF0.0
aF0.0
aF-0.23962006
aF-0.255453438
aF-0.140927777
aF-0.000962536549
aF-0.863197267
aF0.0
aF0.0
aF0.0
aF0.0
aF-0.119059175
aF-0.0613897666
aF0.178726897
aF0.0829868391
aF0.23832114
aF0.0
aF0.0
aF0.0
aF0.0
aF0.727779746
aF-0.0297947209
aF0.134916559
aF-0.14492324
aF0.138538033
aF0.0
aF0.0
aF0.0
aF0.0
aF0.227169827
aF-0.221621007
aF0.907437325
aF-0.593040586
aF0.0341133699
aF0.0
aF0.0
aF0.0
aF0.0
aF-0.168411255
aF0.05051535
aF-0.352678537
aF-0.327892035
aF0.1732575
aF0.0
aF0.0
aF0.0
aF0.0
aF0.405166537
aF-0.0198228452
aF0.236734778
aF0.0761667117
aF0.0418169908
aF0.0
aF0.0
aF0.0
aF0.0
aF0.857338786
aF0.111644052
aF-0.432020694
aF-0.520389497
aF-0.564241648
aF0.0
aF0.0
aF0.0
aF0.0
aF-0.355164647
aF-0.0871316716
aF0.229146913
aF0.553186297
aF0.0927775651
aF0.0
aF0.0
aF0.0
aF0.0
aF-0.33395493
aF-0.0668474585
aF-0.206973106
aF0.0191098601
aF0.0754218847
aF0.0
aF0.0
aF0.0
aF0.0
aF0.178795531
aF-0.129417941
aF-0.147912279
aF-0.587201536
aF0.0183879714
aF0.0
aF0.0
aF0.0
aF0.0
aF-0.30591765
aF-0.137855321
aF0.060004212
aF0.393176258
aF-0.22897619
aF0.0
aF0.0
aF0.0
aF0.0
aF0.623056352
aF-0.338233918
aF0.692582786
aF-0.0552542396
aF0.475444108
aF0.0
aF0.0
aF0.0
aF0.0
aF-0.29659757
aF-0.180446833
aF-0.124042496
aF-0.712457418
aF-0.725270689
aF0.0
aF0.0
aF0.0
aF0.0
aF-0.111186951
aF0.0472718515
aF0.0241384655
aF-0.0715779439
aF0.302164733
aF0.0
aF0.0
aF0.0
aF0.0
aF-0.0999223739
aF-0.469064832
aF-0.11950437
aF-0.166334063
aF-0.0545560718
aF0.0
aF0.0
aF0.0
aF0.0
aF0.343659908
aF-0.548070848
aF0.726182759
aF0.219419986
aF0.629538357
aF0.0
aF0.0
aF0.0
aF0.0
aF-0.500962436
aF-0.0763633475
aF-1.05313838
aF-0.0168920457
aF0.242829189
aF0.0
aF0.0
aF0.0
aF0.0
aF-0.171469182
aF0.275886595
aF-0.152751178
aF0.0683065206
aF0.262795508
aF0.0
aF0.0
aF0.0
aF0.0
aF-0.486901581
aF-0.646256328
aF-0.215698823
aF0.373247474
aF-0.0138203213
aF0.0
aF0.0
aF0.0
aF0.0
aF0.0744014978
aF0.466262549
aF0.193529651
aF0.218999803
aF-0.228662327
aF0.0
aF0.0
aF0.0
aF0.0
aF0.538684607
aF0.192464679
aF-0.0711262971
aF-0.199009627
aF-0.0343686007
aF0.0
aF0.0
aF0.0
aF0.0
aF0.224237442
aF0.00764493598
aF0.0398183167
aF-0.370433241
aF-0.303048551
aF0.0
aF0.0
aF0.0
aF0.0
aF0.641019702
aF0.314298511
aF-0.111494631
aF0.0216136668
aF-0.377822787
aF0.0
aF0.0
aF0.0
aF0.0
aF0.0576416031
aF-0.337455124
aF-0.0614218265
aF0.013186032
aF-0.184429184
aF0.0
aF0.0
aF0.0
aF0.0
aF-0.191668957
aF0.0466821156
aF0.101555452
aF-0.436313361
aF0.269559979
aF0.0
aF0.0
aF0.0
aF0.0
aF0.396805286
aF-0.158503726
aF-0.284466267
aF-0.326622427
aF-0.14273487
aF0.0
aF0.0
aF0.0
aF0.0
aF-0.168941587
aF-0.290667444
aF0.162163958
aF-0.0973966345
aF0.0105354385
aF0.0
aF0.0
aF0.0
aF0.0
aF0.5321877
aF-0.0606039912
aF0.655570507
aF-0.208619654
aF0.191477969
aF0.0
aF0.0
aF0.0
aF0.0
aF-0.231147632
aF-0.207971781
aF-0.616783381
aF-0.209020138
aF0.136913851
aF0.0
aF0.0
aF0.0
aF0.0
aF-0.139291614
aF-0.254358619
aF0.449319482
aF-0.601697266
aF-0.0324238986
aF0.0
aF0.0
aF0.0
aF0.0
aF0.540227294
aF-0.141187593
aF0.652261555
aF-0.106857814
aF0.168948308
aF0.0
aF0.0
aF0.0
aF0.0
aF0.422633111
aF-0.58938235
aF0.632018685
aF0.152364179
aF-0.0245643407
aF0.0
aF0.0
aF0.0
aF0.0
aF0.642443001
aF0.25115028
aF-0.885741115
aF-0.465274096
aF-0.658641934
aF0.0
aF0.0
aF0.0
aF0.0
aF0.673063874
aF-0.105971493
aF-0.258631796
aF0.631926477
aF0.169767469
aF0.0
aF0.0
aF0.0
aF0.0
aF0.0027443557
aF-0.383824825
aF0.0148176467
aF-0.109286979
aF-0.224891707
aF0.0
aF0.0
aF0.0
aF0.0
aF-0.289909095
aF-0.059213616
aF0.738224804
aF0.21355997
aF0.10368944
aF0.0
aF0.0
aF0.0
aF0.0
aF-0.430140674
aF-0.22203353
aF-0.419686586
aF0.399160147
aF-0.737360358
aF0.0
aF0.0
aF0.0
aF0.0
aF0.742917955
aF-0.327106446
aF0.120221451
aF-0.0913762152
aF0.32683903
aF0.0
aF0.0
aF0.0
aF0.0
aF-0.499009877
aF-0.0122210113
aF0.354967475
aF-0.0687934831
aF0.0428535081
aF0.0
aF0.0
aF0.0
aF0.0
aF-0.10467051
aF0.101157658
aF0.324199647
aF-0.136898339
aF-0.0728774965
aF0.0
aF0.0
aF0.0
aF0.0
aF0.159052283
aF-0.581248224
aF-0.2354213
aF-0.235384807
aF-0.278252244
aF0.0
aF0.0
aF0.0
aF0.0
aF0.556292117
aF-0.602541268
aF0.492590129
aF0.110148579
aF0.346402287
aF0.0
aF0.0
aF0.0
aF0.0
aF-0.602899849
aF0.0780123174
aF0.174599588
aF-0.253885984
aF-0.52866447
aF0.0
aF0.0
aF0.0
aF0.0
aF-0.144525141
aF-0.345225245
aF0.276831329
aF-0.298996449
aF0.526459515
aF0.0
aF0.0
aF0.0
aF0.0
aF-0.474863708
aF-0.652423918
aF-0.0122254351
aF0.420226574
aF-0.275179654
aF0.0
aF0.0
aF0.0
aF0.0
aF-0.0113722878
aF0.45235303
aF0.141213655
aF0.116234839
aF-0.393811971
aF0.0
aF0.0
aF0.0
aF0.0
aF-1.23159146
aF-0.578977823
aF-0.624714315
aF-0.347772956
aF0.0424867533
aF0.0
aF0.0
aF0.0
aF0.0
aF0.136002809
aF0.128826499
aF0.791270792
aF0.401469797
aF0.586192548
aF0.0
aF0.0
aF0.0
aF0.0
aF0.0927972272
aF0.431303501
aF-0.372141689
aF0.00871019345
aF-0.631219625
aF0.0
aF0.0
aF0.0
aF0.0
aF-0.131301165
aF-0.262411118
aF-0.351454854
aF-0.0347383916
aF-0.263794571
aF0.0
aF0.0
aF0.0
aF0.0
aF0.226349041
aF0.0548993461
aF0.264869303
aF0.140380263
aF0.379853368
aF0.0
aF0.0
aF0.0
aF0.0
aF-0.0737215951
aF0.047967393
aF0.224903956
aF-0.128950074
aF0.377699286
aF0.0
aF0.0
aF0.0
aF0.0
aF-0.850080073
aF-0.35192886
aF-0.243643299
aF-0.211393729
aF-0.0935412869
aF0.0
aF0.0
aF0.0
aF0.0
aF-0.397053838
aF-0.121823512
aF0.126234397
aF-0.269611925
aF0.0529604331
aF0.0
aF0.0
aF0.0
aF0.0
aF-0.125000298
aF-0.000743005134
aF0.494449019
aF-0.127341464
aF0.729751945
aF0.0
aF0.0
aF0.0
aF0.0
aF0.345985174
aF-0.304659218
aF0.487675786
aF0.491588026
aF0.368175328
aF0.0
aF0.0
aF0.0
aF0.0
aF-0.267780572
aF-0.304332525
aF-0.112188965
aF-0.310044765
aF-0.261125326
aF0.0
aF0.0
aF0.0
aF0.0
aF0.3057127
aF-0.588897228
aF0.103146903
aF0.115964241
aF-0.234772265
aF0.0
aF0.0
aF0.0
aF0.0
aF0.221293613
aF-0.47368601
aF0.470308453
aF0.591465116
aF0.41604948
aF0.0
aF0.0
aF0.0
aF0.0
aF-0.343089908
aF-0.499907076
aF0.129180774
aF0.536282837
aF0.506420553
aF0.0
aF0.0
aF0.0
aF0.0
aF-0.23914969
aF-0.394355804
aF-0.882405639
aF-0.139280438
aF-0.335308224
aF0.0
aF0.0
aF0.0
aF0.0
aF0.153428748
aF-0.0467446148
aF-0.0602892116
aF0.169571236
aF-0.180160001
aF0.0
aF0.0
aF0.0
aF0.0
aF-0.194573879
aF0.218211591
aF0.304972053
aF0.325597167
aF0.405940741
aF0.0
aF0.0
aF0.0
aF0.0
aF0.00481544062
aF-0.298584312
aF0.238423079
aF0.379236668
aF0.563644707
aF0.0
aF0.0
aF0.0
aF0.0
aF-0.0869260877
aF-0.0573343225
aF0.154047474
aF-0.0659853816
aF-0.394012094
aF0.0
aF0.0
aF0.0
aF0.0
aF0.699213684
aF0.126777768
aF0.204659238
aF-0.0179210231
aF-0.0689138472
aF0.0
aF0.0
aF0.0
aF0.0
aF-0.630468965
aF-0.178704679
aF0.434103429
aF0.225542516
aF0.270078272
aF0.0
aF0.0
aF0.0
aF0.0
aF0.213889718
aF-0.385268688
aF-0.11390502
aF-0.334360272
aF0.00548861362
aF0.0
aF0.0
aF0.0
aF0.0
aF-0.182721198
aF0.0334143005
aF0.297026724
aF-0.178528547
aF-0.382607996
aF0.0
aF0.0
aF0.0
aF0.0
aF0.726948082
aF-0.162151471
aF0.110956691
aF-0.173408046
aF0.374986231
aF0.0
aF0.0
aF0.0
aF0.0
aF-0.866460741
aF-0.549356997
aF-0.108562835
aF-0.32511583
aF-0.404587239
aF0.0
aF0.0
aF0.0
aF0.0
aF0.296600401
aF0.0412443466
aF1.36016452
aF-0.142447874
aF0.234606937
aF0.0
aF0.0
aF0.0
aF0.0
aF-0.753077865
aF-0.410035431
aF-0.714660048
aF-0.232850447
aF-0.174986884
aF0.0
aF0.0
aF0.0
aF0.0
aF0.261832625
aF0.129934743
aF0.656666875
aF0.354894727
aF0.843480587
aF0.0
aF0.0
aF0.0
aF0.0
aF-0.75825429
aF-0.144677252
aF-0.0583848096
aF-0.319248617
aF-0.425275177
aF0.0
aF0.0
aF0.0
aF0.0
aF0.229404807
aF0.236859784
aF0.607155323
aF-0.0379653759
aF0.709186494
aF0.0
aF0.0
aF0.0
aF0.0
aF-0.0515526533
aF0.0827844217
aF0.0118086971
aF0.107150137
aF0.227750421
aF0.0
aF0.0
aF0.0
aF0.0
aF0.20746997
aF0.00891506951
aF0.0602088831
aF-0.272913218
aF0.0601341166
aF0.0
aF0.0
aF0.0
aF0.0
aF-0.328672498
aF0.0496176556
aF-0.161515668
aF-0.0935742781
aF0.182444364
aF0.0
aF0.0
aF0.0
aF0.0
aF-0.0057445853
aF-0.294057131
aF-0.129255772
aF0.384549022
aF-0.0455466993
aF0.0
aF0.0
aF0.0
aF0.0
aF-0.782988429
aF-0.148195729
aF0.251558214
aF-0.34526208
aF0.321690142
aF0.0
aF0.0
aF0.0
aF0.0
aF-0.171266779
aF-0.340786368
aF-0.12846756
aF0.472121984
aF0.393492013
aF0.0
aF0.0
aF0.0
aF0.0
aF-0.046928443
aF-0.35487783
aF-0.0626569986
aF0.275181234
aF0.174365103
aF0.0
aF0.0
aF0.0
aF0.0
aF-0.249874979
aF0.110672623
aF0.0355014652
aF0.290945798
aF0.30577594
aF0.0
aF0.0
aF0.0
aF0.0
aF-0.0648584664
aF-0.490371466
aF-0.201174602
aF0.546062708
aF0.30498907
aF0.0
aF0.0
aF0.0
aF0.0
aF-0.681614041
aF-0.580539644
aF-0.0285586789
aF0.473324001
aF0.194300279
aF0.0
aF0.0
aF0.0
aF0.0
aF-0.180584788
aF0.109408893
aF0.13069509
aF0.346379936
aF0.254922301
aF0.0
aF0.0
aF0.0
aF0.0
aF0.0124183185
aF-0.668238759
aF-0.494571477
aF0.606607258
aF0.411403567
aF0.0
aF0.0
aF0.0
aF0.0
aF-0.493631274
aF0.241477311
aF0.133476347
aF0.280669987
aF-0.0133871203
aF0.0
aF0.0
aF0.0
aF0.0
aF0.1776364
aF-0.357076377
aF-0.39538154
aF0.29217118
aF0.0406691022
aF0.0
aF0.0
aF0.0
aF0.0
aF0.4820517
aF-0.0385511704
aF-0.0518357828
aF-0.513539493
aF0.0965909585
aF0.0
aF0.0
aF0.0
aF0.0
aF0.0385880321
aF-0.0529670529
aF0.228637844
aF0.241745219
aF-0.344353944
aF0.0
aF0.0
aF0.0
aF0.0
aF-0.0219635088
aF-0.206127465
aF0.273717999
aF0.223008335
aF-0.0139013734
aF0.0
aF0.0
aF0.0
aF0.0
aF-0.118029833
aF-0.393472612
aF-0.574779809
aF-0.266262949
aF-0.571658194
aF0.0
aF0.0
aF0.0
aF0.0
aF-0.312686116
aF-0.0249201097
aF0.320824742
aF0.333533257
aF-0.669344664
aF0.0
aF0.0
aF0.0
aF0.0
aF0.576758564
aF-0.195988744
aF0.87534523
aF0.424659371
aF0.341286987
aF0.0
aF0.0
aF0.0
aF0.0
aF-0.672758162
aF-0.256700665
aF-0.210733816
aF-0.337385863
aF-0.563734651
aF0.0
aF0.0
aF0.0
aF0.0
aF-0.0437802188
aF-0.0153499097
aF0.109308623
aF-0.155387744
aF0.092158258
aF0.0
aF0.0
aF0.0
aF0.0
aF-0.102786757
aF-0.400496632
aF0.246705741
aF0.244281605
aF0.15395081
aF0.0
aF0.0
aF0.0
aF0.0
aF0.477402419
aF0.0285706837
aF0.56579119
aF0.362285733
aF0.478628755
aF0.0
aF0.0
aF0.0
aF0.0
aF-0.438353151
aF-0.122120254
aF-0.718366206
aF-0.163320854
aF-0.455489665
aF0.0
aF0.0
aF0.0
aF0.0
aF0.684259057
aF0.214350104
aF0.59531647
aF0.0889480412
aF0.24234353
aF0.0
aF0.0
aF0.0
aF0.0
aF-0.229487479
aF-0.0382034704
aF-0.131663024
aF0.234023333
aF0.0293908194
aF0.0
aF0.0
aF0.0
aF0.0
aF-0.279793859
aF-0.0465183407
aF0.162756175
aF0.590971768
aF-0.219043046
aF0.0
aF0.0
aF0.0
aF0.0
aF0.204089716
aF0.0856143534
aF0.528045535
aF-0.0469728969
aF0.151346624
aF0.0
aF0.0
aF0.0
aF0.0
aF0.298490465
aF-0.313363224
aF-0.0700924471
aF0.470617443
aF0.0103139291
aF0.0
aF0.0
aF0.0
aF0.0
aF-0.383298516
aF-0.089554444
aF-0.101602435
aF0.444523633
aF-0.537378371
aF0.0
aF0.0
aF0.0
aF0.0
aF0.032825537
aF-0.196598157
aF-0.161525145
aF-0.135304719
aF-0.190177083
aF0.0
aF0.0
aF0.0
aF0.0
aF-0.169936121
aF-0.390465111
aF0.0661750063
aF0.339267343
aF0.0256736781
aF0.0
aF0.0
aF0.0
aF0.0
aF0.114918806
aF0.0787824765
aF0.182587653
aF0.263249636
aF0.154127389
aF0.0
aF0.0
aF0.0
aF0.0
aF-0.380715907
aF-0.217354089
aF-0.508436918
aF-0.219520465
aF-0.151341945
aF0.0
aF0.0
aF0.0
aF0.0
aF0.0853865668
aF-0.450476199
aF-0.0110542607
aF0.4824633
aF0.706669152
aF0.0
aF0.0
aF0.0
aF0.0
aF-0.141400412
aF0.0556899831
aF0.412171185
aF0.316313118
aF-0.280487508
aF0.0
aF0.0
aF0.0
aF0.0
aF0.0490469225
aF-0.641095221
aF-0.381718397
aF0.649896026
aF0.230119273
aF0.0
aF0.0
aF0.0
aF0.0
aF-0.300820529
aF-0.404960006
aF-0.517906189
aF0.683735013
aF0.495308012
aF0.0
aF0.0
aF0.0
aF0.0
aF0.218684644
aF-0.121483713
aF-0.000331503863
aF0.648661613
aF-0.636797249
aF0.0
aF0.0
aF0.0
aF0.0
aF0.465485156
aF0.0443256758
aF-0.125926659
aF-0.463025361
aF0.0569696054
aF0.0
aF0.0
aF0.0
aF0.0
aF0.0528319962
aF0.162755042
aF-0.497819573
aF0.136541575
aF-0.0979338065
aF0.0
aF0.0
aF0.0
aF0.0
aF-0.57462883
aF0.152070999
aF-0.114738867
aF-0.77508992
aF-0.11979942
aF0.0
aF0.0
aF0.0
aF0.0
aF0.577391744
aF-0.0669858307
aF0.523928702
aF0.147509575
aF0.51613766
aF0.0
aF0.0
aF0.0
aF0.0
aF-0.622741461
aF-0.0249133352
aF-0.066344887
aF0.335787535
aF-0.622269034
aF0.0
aF0.0
aF0.0
aF0.0
aF0.0208274126
aF-0.20425494
aF0.0301606692
aF0.398337394
aF-0.131567687
aF0.0
aF0.0
aF0.0
aF0.0
aF0.138265193
aF-0.0453083329
aF0.210521758
aF0.119671471
aF-0.153708637
aF0.0
aF0.0
aF0.0
aF0.0
aF0.565882087
aF-0.418463022
aF0.0370356217
aF0.199256733
aF0.226815522
aF0.0
aF0.0
aF0.0
aF0.0
aF-0.36386475
aF-0.362163454
aF0.147966221
aF0.223847166
aF-0.0573132001
aF0.0
aF0.0
aF0.0
aF0.0
aF-0.251770824
aF-0.0123207672
aF0.302024126
aF0.0849459544
aF0.0599593408
aF0.0
aF0.0
aF0.0
aF0.0
aF-0.39176774
aF-0.417499334
aF-0.320274234
aF0.12687993
aF-0.144997299
aF0.0
aF0.0
aF0.0
aF0.0
aF0.48060599
aF-0.056675449
aF0.608716011
aF0.47846812
aF-0.173266232
aF0.0
aF0.0
aF0.0
aF0.0
aF-0.533746779
aF-0.0325134546
aF-0.00888996385
aF0.153447151
aF-0.171685427
aF0.0
aF0.0
aF0.0
aF0.0
aF-0.235390112
aF-0.0796839371
aF0.312372386
aF0.546360016
aF-0.352175474
aF0.0
aF0.0
aF0.0
aF0.0
aF-0.0094679147
aF-0.191477209
aF-0.21400018
aF0.266487569
aF-0.190226004
aF0.0
aF0.0
aF0.0
aF0.0
aF-0.142993689
aF-0.282764882
aF0.164882496
aF0.639978349
aF0.322986841
aF0.0
aF0.0
aF0.0
aF0.0
aF-0.387316287
aF-0.043001119
aF-0.0447079502
aF0.485035539
aF-0.809205651
aF0.0
aF0.0
aF0.0
aF0.0
aF0.0404726006
aF-0.0920732915
aF0.116295919
aF0.0226990432
aF-0.0771934092
aF0.0
aF0.0
aF0.0
aF0.0
aF-0.211009592
aF-0.308038831
aF0.19295837
aF0.5680843
aF0.0720128566
aF0.0
aF0.0
aF0.0
aF0.0
aF0.134556785
aF0.429225355
aF-0.0475898907
aF-0.0884472951
aF0.00874254946
aF0.0
aF0.0
aF0.0
aF0.0
aF-0.511650026
aF-0.199059501
aF0.0183923207
aF-0.066610761
aF-0.0177199543
aF0.0
aF0.0
aF0.0
aF0.0
aF0.0850714147
aF-0.444832921
aF0.0640728995
aF0.565082014
aF0.876583159
aF0.0
aF0.0
aF0.0
aF0.0
aF-0.263282925
aF0.387261391
aF-0.607317924
aF-0.155883923
aF-0.416285127
aF0.0
aF0.0
aF0.0
aF0.0
aF0.129757851
aF0.0817066357
aF-0.141332448
aF0.474643737
aF0.474029243
aF0.0
aF0.0
aF0.0
aF0.0
aF-0.163377032
aF-0.43766284
aF0.403221101
aF0.734769404
aF0.826403618
aF0.0
aF0.0
aF0.0
aF0.0
aF0.250332177
aF-0.143187761
aF-0.21352835
aF0.67100811
aF-0.49097535
aF0.0
aF0.0
aF0.0
aF0.0
aF0.245899186
aF0.029903084
aF-0.353375196
aF0.567270875
aF0.437986791
aF0.0
aF0.0
aF0.0
aF0.0
aF-0.386503726
aF-0.663348496
aF-0.463059187
aF-0.0898292512
aF-0.429321885
aF0.0
aF0.0
aF0.0
aF0.0
aF-0.084985204
aF-0.00964740105
aF0.037027549
aF-0.955462754
aF-0.284734279
aF0.0
aF0.0
aF0.0
aF0.0
aF0.903313041
aF-0.13562642
aF-0.517460287
aF0.0857563615
aF-0.0926157013
aF0.0
aF0.0
aF0.0
aF0.0
aF0.346444309
aF-0.0289754961
aF-0.435914904
aF-0.522304356
aF-0.0996879712
aF0.0
aF0.0
aF0.0
aF0.0
aF0.643618822
aF0.251825362
aF0.495661914
aF-0.0608197898
aF0.464586735
aF0.0
aF0.0
aF0.0
aF0.0
aF0.0496894903
aF-0.0120842122
aF-0.578607261
aF0.10619998
aF-0.472259313
aF0.0
aF0.0
aF0.0
aF0.0
aF0.629898906
aF-0.365634143
aF0.119322278
aF0.221534088
aF-0.10582073
aF0.0
aF0.0
aF0.0
aF0.0
aF-0.749701083
aF0.245030493
aF0.267341554
aF-0.0342040807
aF-0.126464173
aF0.0
aF0.0
aF0.0
aF0.0
aF0.472050369
aF-0.120787285
aF0.08896631
aF0.126191691
aF0.193826556
aF0.0
aF0.0
aF0.0
aF0.0
aF-0.471900851
aF-0.391718805
aF-0.00888690818
aF0.155680269
aF-0.104637064
aF0.0
aF0.0
aF0.0
aF0.0
aF-0.179025024
aF-0.0527091622
aF0.556352377
aF0.163735271
aF0.0082775047
aF0.0
aF0.0
aF0.0
aF0.0
aF0.089914754
aF-0.207798332
aF0.249787703
aF0.106657565
aF0.184169099
aF0.0
aF0.0
aF0.0
aF0.0
aF-0.0127785914
aF-0.377261013
aF0.269575566
aF0.00906024966
aF-0.0249951221
aF0.0
aF0.0
aF0.0
aF0.0
aF-0.309382588
aF-0.180486023
aF0.409293771
aF0.117475696
aF-0.0414967351
aF0.0
aF0.0
aF0.0
aF0.0
aF-0.0949413329
aF-0.241362855
aF0.511015892
aF0.637684822
aF0.539612234
aF0.0
aF0.0
aF0.0
aF0.0
aF-0.133429959
aF-0.492605716
aF0.0378525108
aF-0.0393768474
aF-0.310206652
aF0.0
aF0.0
aF0.0
aF0.0
aF-0.138318256
aF0.0107936524
aF-0.124850184
aF0.00477881124
aF-0.200550705
aF0.0
aF0.0
aF0.0
aF0.0
aF-0.279975027
aF-0.2631028
aF0.1262995
aF0.556708872
aF0.0574577972
aF0.0
aF0.0
aF0.0
aF0.0
aF-0.241334736
aF0.405641615
aF0.241957754
aF-0.106169373
aF0.22826381
aF0.0
aF0.0
aF0.0
aF0.0
aF-0.163262457
aF-0.0824490413
aF-0.516874254
aF-0.138399228
aF-0.774890661
aF0.0
aF0.0
aF0.0
aF0.0
aF0.0300709121
aF0.127582252
aF0.513104856
aF0.236703008
aF0.00416700821
aF0.0
aF0.0
aF0.0
aF0.0
aF-0.514164984
aF0.38763532
aF-0.335437596
aF-0.113377839
aF-0.128515601
aF0.0
aF0.0
aF0.0
aF0.0
aF-0.00150433835
aF0.0847412571
aF-0.167489111
aF0.48560226
aF0.427249461
aF0.0
aF0.0
aF0.0
aF0.0
aF-0.263578534
aF-0.0160189271
aF0.091446884
aF0.178860083
aF-0.352450669
aF0.0
aF0.0
aF0.0
aF0.0
aF0.184769258
aF0.187527463
aF0.0063651707
aF-0.32895276
aF0.519918144
aF0.0
aF0.0
aF0.0
aF0.0
aF0.0693215877
aF-0.0117374798
aF-0.240855992
aF0.541264236
aF0.509397149
aF0.0
aF0.0
aF0.0
aF0.0
aF-0.308083355
aF-0.658931434
aF0.173272014
aF-0.00346257258
aF-0.444484562
aF0.0
aF0.0
aF0.0
aF0.0
aF0.592517436
aF0.122688532
aF0.309044302
aF-0.355723947
aF0.383176208
aF0.0
aF0.0
aF0.0
aF0.0
aF-0.124416731
aF-0.355351418
aF-0.491785169
aF0.489912421
aF0.136863992
aF0.0
aF0.0
aF0.0
aF0.0
aF-0.0553856529
aF-0.0744487941
aF-0.848837078
aF-0.487705141
aF-0.305732757
aF0.0
aF0.0
aF0.0
aF0.0
aF0.734283626
aF0.216455758
aF0.0679423884
aF-0.0300241262
aF-0.10006009
aF0.0
aF0.0
aF0.0
aF0.0
aF0.147089198
aF0.266050518
aF0.144976616
aF0.112259053
aF-0.498391956
aF0.0
aF0.0
aF0.0
aF0.0
aF0.256005257
aF-0.108480878
aF-0.312215149
aF0.369840354
aF0.506378829
aF0.0
aF0.0
aF0.0
aF0.0
aF-0.250625253
aF0.207557619
aF0.420312524
aF-0.0283465423
aF-0.401640326
aF0.0
aF0.0
aF0.0
aF0.0
aF0.463448197
aF-0.255468398
aF-0.298226982
aF0.0681982487
aF-0.0287389904
aF0.0
aF0.0
aF0.0
aF0.0
aF-0.226754159
aF-0.0887172818
aF-0.158627167
aF0.310207814
aF0.166101992
aF0.0
aF0.0
aF0.0
aF0.0
aF-0.020215448
aF-0.405993491
aF-0.0477117077
aF0.327847987
aF0.201880157
aF0.0
aF0.0
aF0.0
aF0.0
aF0.0412432551
aF-0.294815958
aF0.23392725
aF0.133481026
aF-0.0175090544
aF0.0
aF0.0
aF0.0
aF0.0
aF0.27117309
aF-0.349050105
aF0.305029243
aF0.102668785
aF-0.133529365
aF0.0
aF0.0
aF0.0
aF0.0
aF-0.660642684
aF-0.477360606
aF0.298403293
aF0.174406752
aF0.114949629
aF0.0
aF0.0
aF0.0
aF0.0
aF-0.0446440727
aF-0.207646832
aF-0.0632933602
aF0.804038584
aF-0.276339114
aF0.0
aF0.0
aF0.0
aF0.0
aF-0.29647249
aF-0.474358112
aF0.295351356
aF-0.0746244639
aF-0.418914199
aF0.0
aF0.0
aF0.0
aF0.0
aF-0.284890771
aF-0.0670902804
aF0.329635769
aF-0.00510360766
aF0.0340568982
aF0.0
aF0.0
aF0.0
aF0.0
aF-0.174761713
aF-0.255662858
aF0.0727495253
aF0.725388706
aF-0.48578313
aF0.0
aF0.0
aF0.0
aF0.0
aF0.482696176
aF0.207301304
aF0.195678711
aF0.443742722
aF0.0451853871
aF0.0
aF0.0
aF0.0
aF0.0
aF0.155669153
aF-0.198360384
aF-0.247038499
aF-0.314985543
aF-0.781517863
aF0.0
aF0.0
aF0.0
aF0.0
aF0.255638361
aF0.127921328
aF0.409962326
aF0.182478443
aF-0.112765148
aF0.0
aF0.0
aF0.0
aF0.0
aF0.426617414
aF0.100161955
aF-0.101022594
aF0.234290421
aF-0.477395296
aF0.0
aF0.0
aF0.0
aF0.0
aF0.885255635
aF-0.00362557918
aF-0.363375217
aF0.475326806
aF-0.320632666
aF0.0
aF0.0
aF0.0
aF0.0
aF-0.158161983
aF0.0612628646
aF0.0107658207
aF0.170610547
aF-0.372834891
aF0.0
aF0.0
aF0.0
aF0.0
aF0.354064465
aF0.201330379
aF0.0252693314
aF-0.26866895
aF0.561759889
aF0.0
aF0.0
aF0.0
aF0.0
aF0.547171116
aF-0.0657748654
aF-0.505270839
aF0.409732789
aF-0.408974469
aF0.0
aF0.0
aF0.0
aF0.0
aF-0.0669201016
aF-0.00273209671
aF-0.254983515
aF0.181626663
aF-0.0866465867
aF0.0
aF0.0
aF0.0
aF0.0
aF0.597270668
aF0.177428216
aF0.438186824
aF-0.259985685
aF0.521238804
aF0.0
aF0.0
aF0.0
aF0.0
aF-0.16301243
aF-0.372292846
aF-0.130801558
aF0.529524505
aF0.262701988
aF0.0
aF0.0
aF0.0
aF0.0
aF-0.0969646797
aF-0.00517123984
aF-0.476910055
aF0.172280014
aF-0.269123495
aF0.0
aF0.0
aF0.0
aF0.0
aF0.071802184
aF-0.0287230872
aF-0.240428716
aF0.123982131
aF-0.518376172
aF0.0
aF0.0
aF0.0
aF0.0
aF-0.22018908
aF0.225543275
aF-0.0552607924
aF0.0966638029
aF-0.457600981
aF0.0
aF0.0
aF0.0
aF0.0
aF-0.191177562
aF-0.245878413
aF-0.143113226
aF0.4886491
aF0.383814096
aF0.0
aF0.0
aF0.0
aF0.0
aF-0.455029219
aF-0.217955858
aF-0.488629013
aF-0.341635883
aF0.511000216
aF0.0
aF0.0
aF0.0
aF0.0
aF1.08178854
aF-0.827127814
aF0.141455099
aF-0.00986026693
aF0.724543929
aF0.0
aF0.0
aF0.0
aF0.0
aF-0.866258681
aF-0.208194688
aF0.254590005
aF0.377083391
aF0.531597137
aF0.0
aF0.0
aF0.0
aF0.0
aF-0.488999426
aF-0.532254636
aF0.207339585
aF0.264083862
aF0.179747
aF0.0
aF0.0
aF0.0
aF0.0
aF-0.0552762449
aF-0.807302415
aF0.331887245
aF-0.0676826835
aF0.363072336
aF0.0
aF0.0
aF0.0
aF0.0
aF0.315484583
aF-0.29280594
aF0.304573804
aF-0.134453416
aF0.323769033
aF0.0
aF0.0
aF0.0
aF0.0
aF-1.13475502
aF-0.602491617
aF0.0345983692
aF0.219108969
aF0.377344906
aF0.0
aF0.0
aF0.0
aF0.0
aF0.328007936
aF-0.166041955
aF-0.369674087
aF0.871857822
aF-0.445125133
aF0.0
aF0.0
aF0.0
aF0.0
aF-0.0290222093
aF-0.297044486
aF-0.0597576573
aF-0.13950412
aF-0.0430193096
aF0.0
aF0.0
aF0.0
aF0.0
aF0.586478472
aF-0.514419615
aF-0.121994697
aF0.89714092
aF0.608312666
aF0.0
aF0.0
aF0.0
aF0.0
aF-1.25366008
aF-0.327301651
aF-0.211595178
aF0.806686401
aF-0.781160831
aF0.0
aF0.0
aF0.0
aF0.0
aF-0.42485708
aF0.16852805
aF-0.122152247
aF0.502613842
aF-0.189114898
aF0.0
aF0.0
aF0.0
aF0.0
aF-0.119534358
aF-0.533447564
aF-0.133276984
aF0.786404371
aF0.426200002
aF0.0
aF0.0
aF0.0
aF0.0
aF-0.170325279
aF0.0881012455
aF-0.337487012
aF0.939756513
aF0.546983182
aF0.0
aF0.0
aF0.0
aF0.0
aF-0.505319655
aF0.074183315
aF0.0472595058
aF0.25065285
aF-0.522232771
aF0.0
aF0.0
aF0.0
aF0.0
aF0.169442102
aF-0.0931038335
aF-0.279471576
aF0.401087552
aF-0.2752828
aF0.0
aF0.0
aF0.0
aF0.0
aF-0.232791319
aF0.0939268097
aF-0.355347514
aF0.913089633
aF0.090183273
aF0.0
aF0.0
aF0.0
aF0.0
aF0.153365776
aF-0.0633136779
aF-0.164489791
aF0.750291049
aF-0.119503975
aF0.0
aF0.0
aF0.0
aF0.0
aF0.477792889
aF-0.0765603334
aF0.128754869
aF0.385622561
aF0.0325193666
aF0.0
aF0.0
aF0.0
aF0.0
aF-0.396389216
aF-0.051981803
aF0.0340967625
aF0.230335593
aF0.399642259
aF0.0
aF0.0
aF0.0
aF0.0
aF0.140093639
aF0.00935097877
aF-0.092192322
aF0.729905427
aF-0.0286395904
aF0.0
aF0.0
aF0.0
aF0.0
aF-1.03241181
aF-0.29223296
aF-0.416554034
aF0.324995726
aF-0.173522666
aF0.0
aF0.0
aF0.0
aF0.0
aF0.198778957
aF-0.0114174196
aF0.770433426
aF0.198239207
aF0.342145652
aF0.0
aF0.0
aF0.0
aF0.0
aF0.0778464898
aF-0.0317854062
aF0.155121967
aF0.159244686
aF-0.125250116
aF0.0
aF0.0
aF0.0
aF0.0
aF-0.378025442
aF-0.302490115
aF-0.375186175
aF0.257071733
aF-0.398863137
aF0.0
aF0.0
aF0.0
aF0.0
aF-0.0771764144
aF0.0642164871
aF-0.910670459
aF1.80717802
aF-1.08678675
aF0.6535727785694923
a.